	.file	"io_1.c"
	.text
.Ltext0:
	.file 0 "/home/st/start/communis/Deploy_store/.qa/main_repo_fn/dir_c_/_c_/_man/nbase/_Head_sis_libs_v.cplus/17_stdio_h/1_functions/1_clearerr/clearerr_cpjs" "lib/io_1.c"
	.section	.rodata.str1.1,"aMS",@progbits,1
.LC0:
	.string	"failed in file %s at line # %d\n"
.LC1:
	.string	"from fclose_c ftell(stream) = %ld, errno = %d\n"
.LC2:
	.string	"exit(errno) with"
	.text
	.globl	fclose_c
	.type	fclose_c, @function
fclose_c:
.LVL0:
.LFB6:
	.file 1 "lib/io_1.c"
	.loc 1 30 1 view -0
	.cfi_startproc
	.loc 1 31 5 view .LVU1
	.loc 1 30 1 is_stmt 0 view .LVU2
	pushq	%r12
	.cfi_def_cfa_offset 16
	.cfi_offset 12, -16
	movl	%edx, %r12d
	pushq	%rbp
	.cfi_def_cfa_offset 24
	.cfi_offset 6, -24
	movq	%rdi, %rbp
	pushq	%rbx
	.cfi_def_cfa_offset 32
	.cfi_offset 3, -32
	.loc 1 30 1 view .LVU3
	movq	%rsi, %rbx
	.loc 1 31 14 view .LVU4
	call	fclose
.LVL1:
	.loc 1 32 5 is_stmt 1 view .LVU5
	.loc 1 32 8 is_stmt 0 view .LVU6
	cmpl	$-1, %eax
	jne	.L1
	.loc 1 34 9 is_stmt 1 view .LVU7
	movq	stderr(%rip), %rdi
	movl	%r12d, %ecx
	movq	%rbx, %rdx
	xorl	%eax, %eax
.LVL2:
	.loc 1 34 9 is_stmt 0 view .LVU8
	movl	$.LC0, %esi
	call	fprintf
.LVL3:
	.loc 1 35 9 is_stmt 1 view .LVU9
	.loc 1 35 91 is_stmt 0 view .LVU10
	call	__errno_location
.LVL4:
	.loc 1 35 9 view .LVU11
	movq	%rbp, %rdi
	movl	(%rax), %r12d
.LVL5:
	.loc 1 35 91 view .LVU12
	movq	%rax, %rbx
.LVL6:
	.loc 1 35 9 view .LVU13
	call	ftell
.LVL7:
	movq	stderr(%rip), %rdi
	movl	$.LC1, %esi
	movq	%rax, %rdx
	movl	%r12d, %ecx
	xorl	%eax, %eax
	call	fprintf
.LVL8:
	.loc 1 36 9 is_stmt 1 view .LVU14
	movl	$.LC2, %edi
	call	perror
.LVL9:
	.loc 1 37 9 view .LVU15
	movl	(%rbx), %edi
	call	exit
.LVL10:
.L1:
	.loc 1 40 1 is_stmt 0 view .LVU16
	popq	%rbx
	.cfi_def_cfa_offset 24
.LVL11:
	.loc 1 40 1 view .LVU17
	popq	%rbp
	.cfi_def_cfa_offset 16
.LVL12:
	.loc 1 40 1 view .LVU18
	popq	%r12
	.cfi_def_cfa_offset 8
.LVL13:
	.loc 1 40 1 view .LVU19
	ret
	.cfi_endproc
.LFE6:
	.size	fclose_c, .-fclose_c
	.section	.rodata.str1.1
.LC3:
	.string	"from fgetc_c ftell(stream) = %ld, errno = %d\n"
	.text
	.globl	fgetc_c
	.type	fgetc_c, @function
fgetc_c:
.LVL14:
.LFB7:
	.loc 1 46 1 is_stmt 1 view -0
	.cfi_startproc
	.loc 1 47 5 view .LVU21
	.loc 1 46 1 is_stmt 0 view .LVU22
	pushq	%r13
	.cfi_def_cfa_offset 16
	.cfi_offset 13, -16
	movl	%edx, %r13d
	pushq	%r12
	.cfi_def_cfa_offset 24
	.cfi_offset 12, -24
	movq	%rsi, %r12
	pushq	%rbp
	.cfi_def_cfa_offset 32
	.cfi_offset 6, -32
	pushq	%rbx
	.cfi_def_cfa_offset 40
	.cfi_offset 3, -40
	movq	%rdi, %rbx
	pushq	%rcx
	.cfi_def_cfa_offset 48
	.loc 1 47 13 view .LVU23
	call	fgetc
.LVL15:
	.loc 1 48 9 view .LVU24
	movq	%rbx, %rdi
	.loc 1 47 13 view .LVU25
	movl	%eax, %ebp
.LVL16:
	.loc 1 48 5 is_stmt 1 view .LVU26
	.loc 1 48 9 is_stmt 0 view .LVU27
	call	ferror
.LVL17:
	.loc 1 48 8 view .LVU28
	testl	%eax, %eax
	je	.L5
	.loc 1 50 9 is_stmt 1 view .LVU29
	movq	stderr(%rip), %rdi
	movq	%r12, %rdx
	movl	%r13d, %ecx
	xorl	%eax, %eax
	movl	$.LC0, %esi
	call	fprintf
.LVL18:
	.loc 1 51 9 view .LVU30
	.loc 1 51 90 is_stmt 0 view .LVU31
	call	__errno_location
.LVL19:
	.loc 1 51 9 view .LVU32
	movq	%rbx, %rdi
	movl	(%rax), %r12d
.LVL20:
	.loc 1 51 90 view .LVU33
	movq	%rax, %rbp
.LVL21:
	.loc 1 51 9 view .LVU34
	call	ftell
.LVL22:
	movq	stderr(%rip), %rdi
	movl	$.LC3, %esi
	movq	%rax, %rdx
	movl	%r12d, %ecx
	xorl	%eax, %eax
	call	fprintf
.LVL23:
	.loc 1 52 9 is_stmt 1 view .LVU35
	movl	$.LC2, %edi
	call	perror
.LVL24:
	.loc 1 53 9 view .LVU36
	movl	0(%rbp), %edi
	call	exit
.LVL25:
.L5:
	.loc 1 56 1 is_stmt 0 view .LVU37
	popq	%rdx
	.cfi_def_cfa_offset 40
	movl	%ebp, %eax
	popq	%rbx
	.cfi_def_cfa_offset 32
.LVL26:
	.loc 1 56 1 view .LVU38
	popq	%rbp
	.cfi_def_cfa_offset 24
.LVL27:
	.loc 1 56 1 view .LVU39
	popq	%r12
	.cfi_def_cfa_offset 16
.LVL28:
	.loc 1 56 1 view .LVU40
	popq	%r13
	.cfi_def_cfa_offset 8
.LVL29:
	.loc 1 56 1 view .LVU41
	ret
	.cfi_endproc
.LFE7:
	.size	fgetc_c, .-fgetc_c
	.section	.rodata.str1.1
.LC4:
	.string	"from fgetpos_c ftell(stream) = %ld, pos = %lu, errno = %d\n"
	.text
	.globl	fgetpos_c
	.type	fgetpos_c, @function
fgetpos_c:
.LVL30:
.LFB8:
	.loc 1 59 1 is_stmt 1 view -0
	.cfi_startproc
	.loc 1 60 5 view .LVU43
	.loc 1 59 1 is_stmt 0 view .LVU44
	pushq	%r12
	.cfi_def_cfa_offset 16
	.cfi_offset 12, -16
	movq	%rdi, %r12
	pushq	%rbp
	.cfi_def_cfa_offset 24
	.cfi_offset 6, -24
	movq	%rsi, %rbp
	pushq	%rbx
	.cfi_def_cfa_offset 32
	.cfi_offset 3, -32
	subq	$16, %rsp
	.cfi_def_cfa_offset 48
	.loc 1 59 1 view .LVU45
	movq	%rdx, 8(%rsp)
	movl	%ecx, 4(%rsp)
	.loc 1 60 13 view .LVU46
	call	fgetpos
.LVL31:
	.loc 1 61 5 is_stmt 1 view .LVU47
	.loc 1 61 8 is_stmt 0 view .LVU48
	movl	4(%rsp), %ecx
	movq	8(%rsp), %rdx
	testl	%eax, %eax
	je	.L9
	.loc 1 63 9 is_stmt 1 view .LVU49
	movq	stderr(%rip), %rdi
	movl	$.LC0, %esi
	xorl	%eax, %eax
.LVL32:
	.loc 1 63 9 is_stmt 0 view .LVU50
	call	fprintf
.LVL33:
	.loc 1 64 9 is_stmt 1 view .LVU51
	.loc 1 64 108 is_stmt 0 view .LVU52
	call	__errno_location
.LVL34:
	.loc 1 64 9 view .LVU53
	movq	%r12, %rdi
	movl	(%rax), %r8d
	.loc 1 64 108 view .LVU54
	movq	%rax, %rbx
	.loc 1 64 9 view .LVU55
	movl	%r8d, 4(%rsp)
.LVL35:
	.loc 1 64 9 view .LVU56
	call	ftell
.LVL36:
	movl	4(%rsp), %r8d
	movq	%rbp, %rcx
	movq	stderr(%rip), %rdi
	movq	%rax, %rdx
	movl	$.LC4, %esi
	xorl	%eax, %eax
	call	fprintf
.LVL37:
	.loc 1 65 9 is_stmt 1 view .LVU57
	movl	$.LC2, %edi
	call	perror
.LVL38:
	.loc 1 66 9 view .LVU58
	movl	(%rbx), %edi
	call	exit
.LVL39:
.L9:
	.loc 1 68 5 view .LVU59
	.loc 1 69 1 is_stmt 0 view .LVU60
	addq	$16, %rsp
	.cfi_def_cfa_offset 32
	xorl	%eax, %eax
.LVL40:
	.loc 1 69 1 view .LVU61
	popq	%rbx
	.cfi_def_cfa_offset 24
	popq	%rbp
	.cfi_def_cfa_offset 16
.LVL41:
	.loc 1 69 1 view .LVU62
	popq	%r12
	.cfi_def_cfa_offset 8
.LVL42:
	.loc 1 69 1 view .LVU63
	ret
	.cfi_endproc
.LFE8:
	.size	fgetpos_c, .-fgetpos_c
	.section	.rodata.str1.1
.LC5:
	.string	"from fgets_s ftell(stream) = %ld, str = %s, num = %d, errno = %d\n"
	.text
	.globl	fgets_c
	.type	fgets_c, @function
fgets_c:
.LVL43:
.LFB9:
	.loc 1 72 1 is_stmt 1 view -0
	.cfi_startproc
	.loc 1 73 5 view .LVU65
	.loc 1 72 1 is_stmt 0 view .LVU66
	pushq	%r14
	.cfi_def_cfa_offset 16
	.cfi_offset 14, -16
	movl	%r8d, %r14d
	pushq	%r13
	.cfi_def_cfa_offset 24
	.cfi_offset 13, -24
	movq	%rdx, %r13
	pushq	%r12
	.cfi_def_cfa_offset 32
	.cfi_offset 12, -32
	movl	%esi, %r12d
	pushq	%rbp
	.cfi_def_cfa_offset 40
	.cfi_offset 6, -40
	movq	%rdi, %rbp
	pushq	%rbx
	.cfi_def_cfa_offset 48
	.cfi_offset 3, -48
	movq	%rcx, %rbx
	subq	$16, %rsp
	.cfi_def_cfa_offset 64
	.loc 1 73 15 view .LVU67
	call	fgets
.LVL44:
	.loc 1 74 5 is_stmt 1 view .LVU68
	.loc 1 74 8 is_stmt 0 view .LVU69
	testq	%rax, %rax
	jne	.L11
	.loc 1 76 9 is_stmt 1 view .LVU70
	movq	stderr(%rip), %rdi
	movq	%rbx, %rdx
	movl	%r14d, %ecx
	movl	$.LC0, %esi
	call	fprintf
.LVL45:
	.loc 1 77 9 view .LVU71
	.loc 1 77 120 is_stmt 0 view .LVU72
	call	__errno_location
.LVL46:
	.loc 1 77 9 view .LVU73
	movq	%r13, %rdi
	movl	(%rax), %r9d
	.loc 1 77 120 view .LVU74
	movq	%rax, %rbx
.LVL47:
	.loc 1 77 9 view .LVU75
	movl	%r9d, 12(%rsp)
	call	ftell
.LVL48:
	movl	12(%rsp), %r9d
	movl	%r12d, %r8d
	movq	%rbp, %rcx
	movq	stderr(%rip), %rdi
	movq	%rax, %rdx
	movl	$.LC5, %esi
	xorl	%eax, %eax
	call	fprintf
.LVL49:
	.loc 1 78 9 is_stmt 1 view .LVU76
	movl	$.LC2, %edi
	call	perror
.LVL50:
	.loc 1 79 9 view .LVU77
	movl	(%rbx), %edi
	call	exit
.LVL51:
.L11:
	.loc 1 82 1 is_stmt 0 view .LVU78
	addq	$16, %rsp
	.cfi_def_cfa_offset 48
	popq	%rbx
	.cfi_def_cfa_offset 40
.LVL52:
	.loc 1 82 1 view .LVU79
	popq	%rbp
	.cfi_def_cfa_offset 32
.LVL53:
	.loc 1 82 1 view .LVU80
	popq	%r12
	.cfi_def_cfa_offset 24
.LVL54:
	.loc 1 82 1 view .LVU81
	popq	%r13
	.cfi_def_cfa_offset 16
.LVL55:
	.loc 1 82 1 view .LVU82
	popq	%r14
	.cfi_def_cfa_offset 8
.LVL56:
	.loc 1 82 1 view .LVU83
	ret
	.cfi_endproc
.LFE9:
	.size	fgets_c, .-fgets_c
	.section	.rodata.str1.1
.LC6:
	.string	"from fopen_c path = %s, mode = %s, errno = %d\n"
	.text
	.globl	fopen_c
	.type	fopen_c, @function
fopen_c:
.LVL57:
.LFB10:
	.loc 1 85 1 is_stmt 1 view -0
	.cfi_startproc
	.loc 1 86 5 view .LVU85
	.loc 1 85 1 is_stmt 0 view .LVU86
	pushq	%r12
	.cfi_def_cfa_offset 16
	.cfi_offset 12, -16
	movq	%rsi, %r12
	pushq	%rbp
	.cfi_def_cfa_offset 24
	.cfi_offset 6, -24
	movq	%rdi, %rbp
	pushq	%rbx
	.cfi_def_cfa_offset 32
	.cfi_offset 3, -32
	subq	$16, %rsp
	.cfi_def_cfa_offset 48
	.loc 1 85 1 view .LVU87
	movq	%rdx, 8(%rsp)
	movl	%ecx, 4(%rsp)
	.loc 1 86 20 view .LVU88
	call	fopen
.LVL58:
	.loc 1 87 5 is_stmt 1 view .LVU89
	.loc 1 87 8 is_stmt 0 view .LVU90
	movl	4(%rsp), %ecx
	movq	8(%rsp), %rdx
	testq	%rax, %rax
	jne	.L14
	.loc 1 90 9 is_stmt 1 view .LVU91
	movq	stderr(%rip), %rdi
	movl	$.LC0, %esi
	call	fprintf
.LVL59:
	.loc 1 91 9 view .LVU92
	.loc 1 91 88 is_stmt 0 view .LVU93
	call	__errno_location
.LVL60:
	.loc 1 91 9 view .LVU94
	movq	%r12, %rcx
	movq	%rbp, %rdx
	movl	$.LC6, %esi
	movl	(%rax), %r8d
	movq	stderr(%rip), %rdi
	.loc 1 91 88 view .LVU95
	movq	%rax, %rbx
	.loc 1 91 9 view .LVU96
	xorl	%eax, %eax
	call	fprintf
.LVL61:
	.loc 1 92 9 is_stmt 1 view .LVU97
	movl	$.LC2, %edi
	call	perror
.LVL62:
	.loc 1 93 9 view .LVU98
	movl	(%rbx), %edi
	call	exit
.LVL63:
.L14:
	.loc 1 97 1 is_stmt 0 view .LVU99
	addq	$16, %rsp
	.cfi_def_cfa_offset 32
	popq	%rbx
	.cfi_def_cfa_offset 24
	popq	%rbp
	.cfi_def_cfa_offset 16
.LVL64:
	.loc 1 97 1 view .LVU100
	popq	%r12
	.cfi_def_cfa_offset 8
.LVL65:
	.loc 1 97 1 view .LVU101
	ret
	.cfi_endproc
.LFE10:
	.size	fopen_c, .-fopen_c
	.section	.rodata.str1.1
.LC7:
	.string	"from fputc_c ftell(stream) = %ld, character = %d, errno = %d\n"
	.text
	.globl	fputc_c
	.type	fputc_c, @function
fputc_c:
.LVL66:
.LFB11:
	.loc 1 101 1 is_stmt 1 view -0
	.cfi_startproc
	.loc 1 102 5 view .LVU103
	.loc 1 101 1 is_stmt 0 view .LVU104
	pushq	%r12
	.cfi_def_cfa_offset 16
	.cfi_offset 12, -16
	movq	%rsi, %r12
	pushq	%rbp
	.cfi_def_cfa_offset 24
	.cfi_offset 6, -24
	pushq	%rbx
	.cfi_def_cfa_offset 32
	.cfi_offset 3, -32
	movl	%edi, %ebx
	subq	$16, %rsp
	.cfi_def_cfa_offset 48
	.loc 1 101 1 view .LVU105
	movq	%rdx, 8(%rsp)
	movl	%ecx, 4(%rsp)
	.loc 1 102 13 view .LVU106
	call	fputc
.LVL67:
	.loc 1 103 5 is_stmt 1 view .LVU107
	.loc 1 103 8 is_stmt 0 view .LVU108
	movl	4(%rsp), %ecx
	movq	8(%rsp), %rdx
	cmpl	%eax, %ebx
	je	.L17
	.loc 1 105 9 is_stmt 1 view .LVU109
	movq	stderr(%rip), %rdi
	movl	$.LC0, %esi
	xorl	%eax, %eax
.LVL68:
	.loc 1 105 9 is_stmt 0 view .LVU110
	call	fprintf
.LVL69:
	.loc 1 106 9 is_stmt 1 view .LVU111
	.loc 1 106 117 is_stmt 0 view .LVU112
	call	__errno_location
.LVL70:
	.loc 1 106 9 view .LVU113
	movq	%r12, %rdi
	movl	(%rax), %r8d
	.loc 1 106 117 view .LVU114
	movq	%rax, %rbp
	.loc 1 106 9 view .LVU115
	movl	%r8d, 4(%rsp)
.LVL71:
	.loc 1 106 9 view .LVU116
	call	ftell
.LVL72:
	movl	4(%rsp), %r8d
	movl	%ebx, %ecx
	movq	stderr(%rip), %rdi
	movq	%rax, %rdx
	movl	$.LC7, %esi
	xorl	%eax, %eax
	call	fprintf
.LVL73:
	.loc 1 107 9 is_stmt 1 view .LVU117
	movl	$.LC2, %edi
	call	perror
.LVL74:
	.loc 1 108 9 view .LVU118
	movl	0(%rbp), %edi
	call	exit
.LVL75:
.L17:
	.loc 1 111 1 is_stmt 0 view .LVU119
	addq	$16, %rsp
	.cfi_def_cfa_offset 32
	movl	%ebx, %eax
.LVL76:
	.loc 1 111 1 view .LVU120
	popq	%rbx
	.cfi_def_cfa_offset 24
.LVL77:
	.loc 1 111 1 view .LVU121
	popq	%rbp
	.cfi_def_cfa_offset 16
	popq	%r12
	.cfi_def_cfa_offset 8
.LVL78:
	.loc 1 111 1 view .LVU122
	ret
	.cfi_endproc
.LFE11:
	.size	fputc_c, .-fputc_c
	.section	.rodata.str1.1
.LC8:
	.string	"from fputs_s ftell(stream) = %ld,  str = %s errno = %d\n"
	.text
	.globl	fputs_c
	.type	fputs_c, @function
fputs_c:
.LVL79:
.LFB12:
	.loc 1 114 1 is_stmt 1 view -0
	.cfi_startproc
	.loc 1 115 5 view .LVU124
	.loc 1 114 1 is_stmt 0 view .LVU125
	pushq	%r12
	.cfi_def_cfa_offset 16
	.cfi_offset 12, -16
	movq	%rsi, %r12
	pushq	%rbp
	.cfi_def_cfa_offset 24
	.cfi_offset 6, -24
	movq	%rdi, %rbp
	pushq	%rbx
	.cfi_def_cfa_offset 32
	.cfi_offset 3, -32
	subq	$16, %rsp
	.cfi_def_cfa_offset 48
	.loc 1 114 1 view .LVU126
	movq	%rdx, 8(%rsp)
	movl	%ecx, 4(%rsp)
	.loc 1 115 13 view .LVU127
	call	fputs
.LVL80:
	.loc 1 116 5 is_stmt 1 view .LVU128
	.loc 1 116 8 is_stmt 0 view .LVU129
	movl	4(%rsp), %ecx
	movq	8(%rsp), %rdx
	cmpl	$-1, %eax
	jne	.L20
	.loc 1 118 9 is_stmt 1 view .LVU130
	movq	stderr(%rip), %rdi
	movl	$.LC0, %esi
	xorl	%eax, %eax
.LVL81:
	.loc 1 118 9 is_stmt 0 view .LVU131
	call	fprintf
.LVL82:
	.loc 1 119 9 is_stmt 1 view .LVU132
	.loc 1 119 105 is_stmt 0 view .LVU133
	call	__errno_location
.LVL83:
	.loc 1 119 9 view .LVU134
	movq	%r12, %rdi
	movl	(%rax), %r8d
	.loc 1 119 105 view .LVU135
	movq	%rax, %rbx
	.loc 1 119 9 view .LVU136
	movl	%r8d, 4(%rsp)
.LVL84:
	.loc 1 119 9 view .LVU137
	call	ftell
.LVL85:
	movl	4(%rsp), %r8d
	movq	%rbp, %rcx
	movq	stderr(%rip), %rdi
	movq	%rax, %rdx
	movl	$.LC8, %esi
	xorl	%eax, %eax
	call	fprintf
.LVL86:
	.loc 1 120 9 is_stmt 1 view .LVU138
	movl	$.LC2, %edi
	call	perror
.LVL87:
	.loc 1 121 9 view .LVU139
	movl	(%rbx), %edi
	call	exit
.LVL88:
.L20:
	.loc 1 124 1 is_stmt 0 view .LVU140
	addq	$16, %rsp
	.cfi_def_cfa_offset 32
	popq	%rbx
	.cfi_def_cfa_offset 24
	popq	%rbp
	.cfi_def_cfa_offset 16
.LVL89:
	.loc 1 124 1 view .LVU141
	popq	%r12
	.cfi_def_cfa_offset 8
.LVL90:
	.loc 1 124 1 view .LVU142
	ret
	.cfi_endproc
.LFE12:
	.size	fputs_c, .-fputs_c
	.section	.rodata.str1.1
.LC9:
	.string	"from fread_c size = %lu,count = %ld errno = %d\n"
	.text
	.globl	fread_c
	.type	fread_c, @function
fread_c:
.LVL91:
.LFB13:
	.loc 1 127 1 is_stmt 1 view -0
	.cfi_startproc
	.loc 1 128 5 view .LVU144
	.loc 1 127 1 is_stmt 0 view .LVU145
	pushq	%r13
	.cfi_def_cfa_offset 16
	.cfi_offset 13, -16
	movl	%r9d, %r13d
	pushq	%r12
	.cfi_def_cfa_offset 24
	.cfi_offset 12, -24
	movq	%rsi, %r12
	pushq	%rbp
	.cfi_def_cfa_offset 32
	.cfi_offset 6, -32
	movq	%r8, %rbp
	pushq	%rbx
	.cfi_def_cfa_offset 40
	.cfi_offset 3, -40
	movq	%rdx, %rbx
	pushq	%r10
	.cfi_def_cfa_offset 48
	.loc 1 128 16 view .LVU146
	call	fread
.LVL92:
	.loc 1 129 5 is_stmt 1 view .LVU147
	.loc 1 129 8 is_stmt 0 view .LVU148
	cmpq	%rax, %rbx
	je	.L23
	.loc 1 131 9 is_stmt 1 view .LVU149
	movq	stderr(%rip), %rdi
	movq	%rbp, %rdx
	movl	%r13d, %ecx
	xorl	%eax, %eax
.LVL93:
	.loc 1 131 9 is_stmt 0 view .LVU150
	movl	$.LC0, %esi
	call	fprintf
.LVL94:
	.loc 1 133 9 is_stmt 1 view .LVU151
	.loc 1 133 90 is_stmt 0 view .LVU152
	call	__errno_location
.LVL95:
	.loc 1 133 9 view .LVU153
	movq	%rbx, %rcx
	movq	%r12, %rdx
	movl	$.LC9, %esi
	movl	(%rax), %r8d
	movq	stderr(%rip), %rdi
	.loc 1 133 90 view .LVU154
	movq	%rax, %rbp
.LVL96:
	.loc 1 133 9 view .LVU155
	xorl	%eax, %eax
	call	fprintf
.LVL97:
	.loc 1 135 9 is_stmt 1 view .LVU156
	movl	$.LC2, %edi
	call	perror
.LVL98:
	.loc 1 136 9 view .LVU157
	movl	0(%rbp), %edi
	call	exit
.LVL99:
.L23:
	.loc 1 139 1 is_stmt 0 view .LVU158
	popq	%rdx
	.cfi_def_cfa_offset 40
	movq	%rbx, %rax
.LVL100:
	.loc 1 139 1 view .LVU159
	popq	%rbx
	.cfi_def_cfa_offset 32
.LVL101:
	.loc 1 139 1 view .LVU160
	popq	%rbp
	.cfi_def_cfa_offset 24
.LVL102:
	.loc 1 139 1 view .LVU161
	popq	%r12
	.cfi_def_cfa_offset 16
.LVL103:
	.loc 1 139 1 view .LVU162
	popq	%r13
	.cfi_def_cfa_offset 8
.LVL104:
	.loc 1 139 1 view .LVU163
	ret
	.cfi_endproc
.LFE13:
	.size	fread_c, .-fread_c
	.section	.rodata.str1.1
.LC10:
	.string	"from freopen_s filename = %s, mode = %s, errno = %d\n"
	.text
	.globl	freopen_c
	.type	freopen_c, @function
freopen_c:
.LVL105:
.LFB14:
	.loc 1 142 1 is_stmt 1 view -0
	.cfi_startproc
	.loc 1 143 5 view .LVU165
	.loc 1 144 5 view .LVU166
	.loc 1 142 1 is_stmt 0 view .LVU167
	movq	%rdx, %rax
	.loc 1 144 8 view .LVU168
	testq	%rdx, %rdx
	jne	.L26
	.loc 1 142 1 view .LVU169
	pushq	%r12
	.cfi_def_cfa_offset 16
	.cfi_offset 12, -16
	movq	%rcx, %rdx
.LVL106:
	.loc 1 142 1 view .LVU170
	movq	%rsi, %r12
	movl	%r8d, %ecx
.LVL107:
	.loc 1 147 9 is_stmt 1 view .LVU171
	.loc 1 142 1 is_stmt 0 view .LVU172
	pushq	%rbp
	.cfi_def_cfa_offset 24
	.cfi_offset 6, -24
	movq	%rdi, %rbp
	.loc 1 147 9 view .LVU173
	movq	stderr(%rip), %rdi
.LVL108:
	.loc 1 147 9 view .LVU174
	movl	$.LC0, %esi
.LVL109:
	.loc 1 142 1 view .LVU175
	pushq	%rbx
	.cfi_def_cfa_offset 32
	.cfi_offset 3, -32
	.loc 1 147 9 view .LVU176
	call	fprintf
.LVL110:
	.loc 1 148 9 is_stmt 1 view .LVU177
	.loc 1 148 98 is_stmt 0 view .LVU178
	call	__errno_location
.LVL111:
	.loc 1 148 9 view .LVU179
	movq	%r12, %rcx
	movq	%rbp, %rdx
	movl	$.LC10, %esi
	movl	(%rax), %r8d
	movq	stderr(%rip), %rdi
	.loc 1 148 98 view .LVU180
	movq	%rax, %rbx
	.loc 1 148 9 view .LVU181
	xorl	%eax, %eax
	call	fprintf
.LVL112:
	.loc 1 149 9 is_stmt 1 view .LVU182
	movl	$.LC2, %edi
	call	perror
.LVL113:
	.loc 1 150 9 view .LVU183
	movl	(%rbx), %edi
	call	exit
.LVL114:
.L26:
	.cfi_def_cfa_offset 8
	.cfi_restore 3
	.cfi_restore 6
	.cfi_restore 12
	.loc 1 154 1 is_stmt 0 view .LVU184
	xorl	%eax, %eax
.LVL115:
	.loc 1 154 1 view .LVU185
	ret
	.cfi_endproc
.LFE14:
	.size	freopen_c, .-freopen_c
	.section	.rodata.str1.1
.LC11:
	.string	"from fseek_s ftell(stream) = %ld, offset = %d, errno = %d\n"
	.text
	.globl	fseek_c
	.type	fseek_c, @function
fseek_c:
.LVL116:
.LFB15:
	.loc 1 158 1 is_stmt 1 view -0
	.cfi_startproc
	.loc 1 159 5 view .LVU187
	.loc 1 158 1 is_stmt 0 view .LVU188
	pushq	%r13
	.cfi_def_cfa_offset 16
	.cfi_offset 13, -16
	movslq	%esi, %rsi
	.loc 1 158 1 view .LVU189
	movl	%r8d, %r13d
	pushq	%r12
	.cfi_def_cfa_offset 24
	.cfi_offset 12, -24
	movq	%rdi, %r12
	pushq	%rbp
	.cfi_def_cfa_offset 32
	.cfi_offset 6, -32
	movq	%rsi, %rbp
	pushq	%rbx
	.cfi_def_cfa_offset 40
	.cfi_offset 3, -40
	movq	%rcx, %rbx
	subq	$24, %rsp
	.cfi_def_cfa_offset 64
	.loc 1 159 13 view .LVU190
	call	fseek
.LVL117:
	.loc 1 160 5 is_stmt 1 view .LVU191
	.loc 1 160 8 is_stmt 0 view .LVU192
	testl	%eax, %eax
	je	.L32
	.loc 1 162 9 is_stmt 1 view .LVU193
	movq	stderr(%rip), %rdi
	movq	%rbx, %rdx
	movl	%r13d, %ecx
	xorl	%eax, %eax
.LVL118:
	.loc 1 162 9 is_stmt 0 view .LVU194
	movl	$.LC0, %esi
	call	fprintf
.LVL119:
	.loc 1 163 9 is_stmt 1 view .LVU195
	.loc 1 163 111 is_stmt 0 view .LVU196
	call	__errno_location
.LVL120:
	.loc 1 163 9 view .LVU197
	movq	%r12, %rdi
	movl	(%rax), %r8d
	.loc 1 163 111 view .LVU198
	movq	%rax, %rbx
.LVL121:
	.loc 1 163 9 view .LVU199
	movl	%r8d, 12(%rsp)
	call	ftell
.LVL122:
	movl	12(%rsp), %r8d
	movl	%ebp, %ecx
	movq	stderr(%rip), %rdi
	movq	%rax, %rdx
	movl	$.LC11, %esi
	xorl	%eax, %eax
	call	fprintf
.LVL123:
	.loc 1 164 9 is_stmt 1 view .LVU200
	movl	$.LC2, %edi
	call	perror
.LVL124:
	.loc 1 165 9 view .LVU201
	movl	(%rbx), %edi
	call	exit
.LVL125:
.L32:
	.loc 1 167 5 view .LVU202
	.loc 1 168 1 is_stmt 0 view .LVU203
	addq	$24, %rsp
	.cfi_def_cfa_offset 40
	xorl	%eax, %eax
.LVL126:
	.loc 1 168 1 view .LVU204
	popq	%rbx
	.cfi_def_cfa_offset 32
.LVL127:
	.loc 1 168 1 view .LVU205
	popq	%rbp
	.cfi_def_cfa_offset 24
.LVL128:
	.loc 1 168 1 view .LVU206
	popq	%r12
	.cfi_def_cfa_offset 16
.LVL129:
	.loc 1 168 1 view .LVU207
	popq	%r13
	.cfi_def_cfa_offset 8
.LVL130:
	.loc 1 168 1 view .LVU208
	ret
	.cfi_endproc
.LFE15:
	.size	fseek_c, .-fseek_c
	.section	.rodata.str1.1
.LC12:
	.string	"from fsetpos_c ftell(stream) = %ld, pos = %lu, errno = %d\n"
	.text
	.globl	fsetpos_c
	.type	fsetpos_c, @function
fsetpos_c:
.LVL131:
.LFB16:
	.loc 1 171 1 is_stmt 1 view -0
	.cfi_startproc
	.loc 1 172 5 view .LVU210
	.loc 1 171 1 is_stmt 0 view .LVU211
	pushq	%r12
	.cfi_def_cfa_offset 16
	.cfi_offset 12, -16
	movq	%rdi, %r12
	pushq	%rbp
	.cfi_def_cfa_offset 24
	.cfi_offset 6, -24
	movq	%rsi, %rbp
	pushq	%rbx
	.cfi_def_cfa_offset 32
	.cfi_offset 3, -32
	subq	$16, %rsp
	.cfi_def_cfa_offset 48
	.loc 1 171 1 view .LVU212
	movq	%rdx, 8(%rsp)
	movl	%ecx, 4(%rsp)
	.loc 1 172 13 view .LVU213
	call	fsetpos
.LVL132:
	.loc 1 173 5 is_stmt 1 view .LVU214
	.loc 1 173 8 is_stmt 0 view .LVU215
	movl	4(%rsp), %ecx
	movq	8(%rsp), %rdx
	testl	%eax, %eax
	je	.L35
	.loc 1 175 9 is_stmt 1 view .LVU216
	movq	stderr(%rip), %rdi
	movl	$.LC0, %esi
	xorl	%eax, %eax
.LVL133:
	.loc 1 175 9 is_stmt 0 view .LVU217
	call	fprintf
.LVL134:
	.loc 1 176 9 is_stmt 1 view .LVU218
	.loc 1 176 108 is_stmt 0 view .LVU219
	call	__errno_location
.LVL135:
	.loc 1 176 9 view .LVU220
	movq	%r12, %rdi
	movl	(%rax), %r8d
	.loc 1 176 108 view .LVU221
	movq	%rax, %rbx
	.loc 1 176 9 view .LVU222
	movl	%r8d, 4(%rsp)
.LVL136:
	.loc 1 176 9 view .LVU223
	call	ftell
.LVL137:
	movl	4(%rsp), %r8d
	movq	%rbp, %rcx
	movq	stderr(%rip), %rdi
	movq	%rax, %rdx
	movl	$.LC12, %esi
	xorl	%eax, %eax
	call	fprintf
.LVL138:
	.loc 1 177 9 is_stmt 1 view .LVU224
	movl	$.LC2, %edi
	call	perror
.LVL139:
	.loc 1 178 9 view .LVU225
	movl	(%rbx), %edi
	call	exit
.LVL140:
.L35:
	.loc 1 180 5 view .LVU226
	.loc 1 181 1 is_stmt 0 view .LVU227
	addq	$16, %rsp
	.cfi_def_cfa_offset 32
	xorl	%eax, %eax
.LVL141:
	.loc 1 181 1 view .LVU228
	popq	%rbx
	.cfi_def_cfa_offset 24
	popq	%rbp
	.cfi_def_cfa_offset 16
.LVL142:
	.loc 1 181 1 view .LVU229
	popq	%r12
	.cfi_def_cfa_offset 8
.LVL143:
	.loc 1 181 1 view .LVU230
	ret
	.cfi_endproc
.LFE16:
	.size	fsetpos_c, .-fsetpos_c
	.section	.rodata.str1.1
.LC13:
	.string	"from ftell_s errno = %d\n"
	.text
	.globl	ftell_c
	.type	ftell_c, @function
ftell_c:
.LVL144:
.LFB17:
	.loc 1 184 1 is_stmt 1 view -0
	.cfi_startproc
	.loc 1 185 5 view .LVU232
	.loc 1 184 1 is_stmt 0 view .LVU233
	pushq	%rbp
	.cfi_def_cfa_offset 16
	.cfi_offset 6, -16
	movl	%edx, %ebp
	pushq	%rbx
	.cfi_def_cfa_offset 24
	.cfi_offset 3, -24
	movq	%rsi, %rbx
	pushq	%rcx
	.cfi_def_cfa_offset 32
	.loc 1 185 18 view .LVU234
	call	ftell
.LVL145:
	.loc 1 186 5 is_stmt 1 view .LVU235
	.loc 1 186 8 is_stmt 0 view .LVU236
	cmpq	$-1, %rax
	jne	.L37
	.loc 1 188 9 is_stmt 1 view .LVU237
	movq	stderr(%rip), %rdi
	movl	%ebp, %ecx
	movq	%rbx, %rdx
	xorl	%eax, %eax
.LVL146:
	.loc 1 188 9 is_stmt 0 view .LVU238
	movl	$.LC0, %esi
	call	fprintf
.LVL147:
	.loc 1 189 9 is_stmt 1 view .LVU239
	.loc 1 189 54 is_stmt 0 view .LVU240
	call	__errno_location
.LVL148:
	.loc 1 189 9 view .LVU241
	movq	stderr(%rip), %rdi
	movl	$.LC13, %esi
	movl	(%rax), %edx
	.loc 1 189 54 view .LVU242
	movq	%rax, %rbx
.LVL149:
	.loc 1 189 9 view .LVU243
	xorl	%eax, %eax
	call	fprintf
.LVL150:
	.loc 1 190 9 is_stmt 1 view .LVU244
	movl	$.LC2, %edi
	call	perror
.LVL151:
	.loc 1 191 9 view .LVU245
	movl	(%rbx), %edi
	call	exit
.LVL152:
.L37:
	.loc 1 194 1 is_stmt 0 view .LVU246
	popq	%rdx
	.cfi_def_cfa_offset 24
	popq	%rbx
	.cfi_def_cfa_offset 16
.LVL153:
	.loc 1 194 1 view .LVU247
	popq	%rbp
	.cfi_def_cfa_offset 8
.LVL154:
	.loc 1 194 1 view .LVU248
	ret
	.cfi_endproc
.LFE17:
	.size	ftell_c, .-ftell_c
	.section	.rodata.str1.1
.LC14:
	.string	"from fwrite_c ftell(stream) = %ld,size = %lu,count = %ld errno = %d\n"
	.text
	.globl	fwrite_c
	.type	fwrite_c, @function
fwrite_c:
.LVL155:
.LFB18:
	.loc 1 197 1 is_stmt 1 view -0
	.cfi_startproc
	.loc 1 198 5 view .LVU250
	.loc 1 197 1 is_stmt 0 view .LVU251
	pushq	%r15
	.cfi_def_cfa_offset 16
	.cfi_offset 15, -16
	movl	%r9d, %r15d
	pushq	%r14
	.cfi_def_cfa_offset 24
	.cfi_offset 14, -24
	movq	%r8, %r14
	pushq	%r13
	.cfi_def_cfa_offset 32
	.cfi_offset 13, -32
	movq	%rdx, %r13
	pushq	%r12
	.cfi_def_cfa_offset 40
	.cfi_offset 12, -40
	movq	%rsi, %r12
	pushq	%rbp
	.cfi_def_cfa_offset 48
	.cfi_offset 6, -48
	pushq	%rbx
	.cfi_def_cfa_offset 56
	.cfi_offset 3, -56
	movq	%rcx, %rbx
	subq	$24, %rsp
	.cfi_def_cfa_offset 80
	.loc 1 198 16 view .LVU252
	call	fwrite
.LVL156:
	.loc 1 199 9 view .LVU253
	movq	%rbx, %rdi
	.loc 1 198 16 view .LVU254
	movq	%rax, %rbp
.LVL157:
	.loc 1 199 5 is_stmt 1 view .LVU255
	.loc 1 199 9 is_stmt 0 view .LVU256
	call	ferror
.LVL158:
	.loc 1 199 8 view .LVU257
	testl	%eax, %eax
	je	.L40
	.loc 1 201 9 is_stmt 1 view .LVU258
	movq	stderr(%rip), %rdi
	movl	%r15d, %ecx
	movq	%r14, %rdx
	xorl	%eax, %eax
	movl	$.LC0, %esi
	call	fprintf
.LVL159:
	.loc 1 202 9 view .LVU259
	.loc 1 202 126 is_stmt 0 view .LVU260
	call	__errno_location
.LVL160:
	.loc 1 202 9 view .LVU261
	movq	%rbx, %rdi
	movl	(%rax), %r9d
	.loc 1 202 126 view .LVU262
	movq	%rax, %rbp
.LVL161:
	.loc 1 202 9 view .LVU263
	movl	%r9d, 12(%rsp)
	call	ftell
.LVL162:
	movl	12(%rsp), %r9d
	movq	%r13, %r8
	movq	%r12, %rcx
	movq	stderr(%rip), %rdi
	movq	%rax, %rdx
	movl	$.LC14, %esi
	xorl	%eax, %eax
	call	fprintf
.LVL163:
	.loc 1 203 9 is_stmt 1 view .LVU264
	movl	$.LC2, %edi
	call	perror
.LVL164:
	.loc 1 204 9 view .LVU265
	movl	0(%rbp), %edi
	call	exit
.LVL165:
.L40:
	.loc 1 207 1 is_stmt 0 view .LVU266
	addq	$24, %rsp
	.cfi_def_cfa_offset 56
	movq	%rbp, %rax
	popq	%rbx
	.cfi_def_cfa_offset 48
.LVL166:
	.loc 1 207 1 view .LVU267
	popq	%rbp
	.cfi_def_cfa_offset 40
.LVL167:
	.loc 1 207 1 view .LVU268
	popq	%r12
	.cfi_def_cfa_offset 32
.LVL168:
	.loc 1 207 1 view .LVU269
	popq	%r13
	.cfi_def_cfa_offset 24
.LVL169:
	.loc 1 207 1 view .LVU270
	popq	%r14
	.cfi_def_cfa_offset 16
.LVL170:
	.loc 1 207 1 view .LVU271
	popq	%r15
	.cfi_def_cfa_offset 8
.LVL171:
	.loc 1 207 1 view .LVU272
	ret
	.cfi_endproc
.LFE18:
	.size	fwrite_c, .-fwrite_c
	.globl	getc_c
	.type	getc_c, @function
getc_c:
.LVL172:
.LFB19:
	.loc 1 210 1 is_stmt 1 view -0
	.cfi_startproc
	.loc 1 211 5 view .LVU274
	.loc 1 210 1 is_stmt 0 view .LVU275
	pushq	%r13
	.cfi_def_cfa_offset 16
	.cfi_offset 13, -16
	movl	%edx, %r13d
	pushq	%r12
	.cfi_def_cfa_offset 24
	.cfi_offset 12, -24
	movq	%rsi, %r12
	pushq	%rbp
	.cfi_def_cfa_offset 32
	.cfi_offset 6, -32
	pushq	%rbx
	.cfi_def_cfa_offset 40
	.cfi_offset 3, -40
	movq	%rdi, %rbx
	pushq	%rcx
	.cfi_def_cfa_offset 48
	.loc 1 211 13 view .LVU276
	call	getc
.LVL173:
	.loc 1 212 9 view .LVU277
	movq	%rbx, %rdi
	.loc 1 211 13 view .LVU278
	movl	%eax, %ebp
.LVL174:
	.loc 1 212 5 is_stmt 1 view .LVU279
	.loc 1 212 9 is_stmt 0 view .LVU280
	call	ferror
.LVL175:
	.loc 1 212 8 view .LVU281
	testl	%eax, %eax
	je	.L43
	.loc 1 214 9 is_stmt 1 view .LVU282
	movq	stderr(%rip), %rdi
	movq	%r12, %rdx
	movl	%r13d, %ecx
	xorl	%eax, %eax
	movl	$.LC0, %esi
	call	fprintf
.LVL176:
	.loc 1 215 9 view .LVU283
	.loc 1 215 90 is_stmt 0 view .LVU284
	call	__errno_location
.LVL177:
	.loc 1 215 9 view .LVU285
	movq	%rbx, %rdi
	movl	(%rax), %r12d
.LVL178:
	.loc 1 215 90 view .LVU286
	movq	%rax, %rbp
.LVL179:
	.loc 1 215 9 view .LVU287
	call	ftell
.LVL180:
	movq	stderr(%rip), %rdi
	movl	$.LC3, %esi
	movq	%rax, %rdx
	movl	%r12d, %ecx
	xorl	%eax, %eax
	call	fprintf
.LVL181:
	.loc 1 216 9 is_stmt 1 view .LVU288
	movl	$.LC2, %edi
	call	perror
.LVL182:
	.loc 1 217 9 view .LVU289
	movl	0(%rbp), %edi
	call	exit
.LVL183:
.L43:
	.loc 1 220 1 is_stmt 0 view .LVU290
	popq	%rdx
	.cfi_def_cfa_offset 40
	movl	%ebp, %eax
	popq	%rbx
	.cfi_def_cfa_offset 32
.LVL184:
	.loc 1 220 1 view .LVU291
	popq	%rbp
	.cfi_def_cfa_offset 24
.LVL185:
	.loc 1 220 1 view .LVU292
	popq	%r12
	.cfi_def_cfa_offset 16
.LVL186:
	.loc 1 220 1 view .LVU293
	popq	%r13
	.cfi_def_cfa_offset 8
.LVL187:
	.loc 1 220 1 view .LVU294
	ret
	.cfi_endproc
.LFE19:
	.size	getc_c, .-getc_c
	.section	.rodata.str1.1
.LC15:
	.string	"from getchar_c errno = %d\n"
	.text
	.globl	getchar_c
	.type	getchar_c, @function
getchar_c:
.LVL188:
.LFB20:
	.loc 1 223 1 is_stmt 1 view -0
	.cfi_startproc
	.loc 1 224 5 view .LVU296
	.loc 1 223 1 is_stmt 0 view .LVU297
	pushq	%r12
	.cfi_def_cfa_offset 16
	.cfi_offset 12, -16
	movl	%esi, %r12d
	pushq	%rbp
	.cfi_def_cfa_offset 24
	.cfi_offset 6, -24
	movq	%rdi, %rbp
	pushq	%rbx
	.cfi_def_cfa_offset 32
	.cfi_offset 3, -32
	.loc 1 224 13 view .LVU298
	call	getchar
.LVL189:
	.loc 1 225 9 view .LVU299
	movq	stdin(%rip), %rdi
	.loc 1 224 13 view .LVU300
	movl	%eax, %ebx
.LVL190:
	.loc 1 225 5 is_stmt 1 view .LVU301
	.loc 1 225 9 is_stmt 0 view .LVU302
	call	ferror
.LVL191:
	.loc 1 225 8 view .LVU303
	testl	%eax, %eax
	je	.L46
	.loc 1 227 9 is_stmt 1 view .LVU304
	movq	stderr(%rip), %rdi
	movl	%r12d, %ecx
	movq	%rbp, %rdx
	xorl	%eax, %eax
	movl	$.LC0, %esi
	call	fprintf
.LVL192:
	.loc 1 228 9 view .LVU305
	.loc 1 228 56 is_stmt 0 view .LVU306
	call	__errno_location
.LVL193:
	.loc 1 228 9 view .LVU307
	movq	stderr(%rip), %rdi
	movl	$.LC15, %esi
	movl	(%rax), %edx
	.loc 1 228 56 view .LVU308
	movq	%rax, %rbx
.LVL194:
	.loc 1 228 9 view .LVU309
	xorl	%eax, %eax
	call	fprintf
.LVL195:
	.loc 1 229 9 is_stmt 1 view .LVU310
	movl	$.LC2, %edi
	call	perror
.LVL196:
	.loc 1 230 9 view .LVU311
	movl	(%rbx), %edi
	call	exit
.LVL197:
.L46:
	.loc 1 233 1 is_stmt 0 view .LVU312
	movl	%ebx, %eax
	popq	%rbx
	.cfi_def_cfa_offset 24
.LVL198:
	.loc 1 233 1 view .LVU313
	popq	%rbp
	.cfi_def_cfa_offset 16
.LVL199:
	.loc 1 233 1 view .LVU314
	popq	%r12
	.cfi_def_cfa_offset 8
.LVL200:
	.loc 1 233 1 view .LVU315
	ret
	.cfi_endproc
.LFE20:
	.size	getchar_c, .-getchar_c
	.section	.rodata.str1.1
.LC16:
	.string	"from putc_c ftell(stream) = %ld, character = %d, errno = %d\n"
	.text
	.globl	putc_c
	.type	putc_c, @function
putc_c:
.LVL201:
.LFB21:
	.loc 1 239 1 is_stmt 1 view -0
	.cfi_startproc
	.loc 1 240 5 view .LVU317
	.loc 1 239 1 is_stmt 0 view .LVU318
	pushq	%r12
	.cfi_def_cfa_offset 16
	.cfi_offset 12, -16
	movq	%rsi, %r12
	pushq	%rbp
	.cfi_def_cfa_offset 24
	.cfi_offset 6, -24
	pushq	%rbx
	.cfi_def_cfa_offset 32
	.cfi_offset 3, -32
	movl	%edi, %ebx
	subq	$16, %rsp
	.cfi_def_cfa_offset 48
	.loc 1 239 1 view .LVU319
	movq	%rdx, 8(%rsp)
	movl	%ecx, 4(%rsp)
	.loc 1 240 13 view .LVU320
	call	putc
.LVL202:
	.loc 1 241 5 is_stmt 1 view .LVU321
	.loc 1 241 8 is_stmt 0 view .LVU322
	movl	4(%rsp), %ecx
	movq	8(%rsp), %rdx
	cmpl	%eax, %ebx
	je	.L49
	.loc 1 243 9 is_stmt 1 view .LVU323
	movq	stderr(%rip), %rdi
	movl	$.LC0, %esi
	xorl	%eax, %eax
.LVL203:
	.loc 1 243 9 is_stmt 0 view .LVU324
	call	fprintf
.LVL204:
	.loc 1 244 9 is_stmt 1 view .LVU325
	.loc 1 244 116 is_stmt 0 view .LVU326
	call	__errno_location
.LVL205:
	.loc 1 244 9 view .LVU327
	movq	%r12, %rdi
	movl	(%rax), %r8d
	.loc 1 244 116 view .LVU328
	movq	%rax, %rbp
	.loc 1 244 9 view .LVU329
	movl	%r8d, 4(%rsp)
.LVL206:
	.loc 1 244 9 view .LVU330
	call	ftell
.LVL207:
	movl	4(%rsp), %r8d
	movl	%ebx, %ecx
	movq	stderr(%rip), %rdi
	movq	%rax, %rdx
	movl	$.LC16, %esi
	xorl	%eax, %eax
	call	fprintf
.LVL208:
	.loc 1 245 9 is_stmt 1 view .LVU331
	movl	$.LC2, %edi
	call	perror
.LVL209:
	.loc 1 246 9 view .LVU332
	movl	0(%rbp), %edi
	call	exit
.LVL210:
.L49:
	.loc 1 249 1 is_stmt 0 view .LVU333
	addq	$16, %rsp
	.cfi_def_cfa_offset 32
	movl	%ebx, %eax
.LVL211:
	.loc 1 249 1 view .LVU334
	popq	%rbx
	.cfi_def_cfa_offset 24
.LVL212:
	.loc 1 249 1 view .LVU335
	popq	%rbp
	.cfi_def_cfa_offset 16
	popq	%r12
	.cfi_def_cfa_offset 8
.LVL213:
	.loc 1 249 1 view .LVU336
	ret
	.cfi_endproc
.LFE21:
	.size	putc_c, .-putc_c
	.section	.rodata.str1.1
.LC17:
	.string	"from putchar_c character = %d, errno = %d\n"
	.text
	.globl	putchar_c
	.type	putchar_c, @function
putchar_c:
.LVL214:
.LFB22:
	.loc 1 252 1 is_stmt 1 view -0
	.cfi_startproc
	.loc 1 253 5 view .LVU338
	.loc 1 252 1 is_stmt 0 view .LVU339
	pushq	%r12
	.cfi_def_cfa_offset 16
	.cfi_offset 12, -16
	movl	%edx, %r12d
	pushq	%rbp
	.cfi_def_cfa_offset 24
	.cfi_offset 6, -24
	movq	%rsi, %rbp
	pushq	%rbx
	.cfi_def_cfa_offset 32
	.cfi_offset 3, -32
	.loc 1 252 1 view .LVU340
	movl	%edi, %ebx
	.loc 1 253 13 view .LVU341
	call	putchar
.LVL215:
	.loc 1 254 5 is_stmt 1 view .LVU342
	.loc 1 254 8 is_stmt 0 view .LVU343
	cmpl	%eax, %ebx
	je	.L52
	.loc 1 256 9 is_stmt 1 view .LVU344
	movq	stderr(%rip), %rdi
	movq	%rbp, %rdx
	movl	%r12d, %ecx
	xorl	%eax, %eax
.LVL216:
	.loc 1 256 9 is_stmt 0 view .LVU345
	movl	$.LC0, %esi
	call	fprintf
.LVL217:
	.loc 1 257 9 is_stmt 1 view .LVU346
	.loc 1 257 83 is_stmt 0 view .LVU347
	call	__errno_location
.LVL218:
	.loc 1 257 9 view .LVU348
	movq	stderr(%rip), %rdi
	movl	%ebx, %edx
	movl	$.LC17, %esi
	movl	(%rax), %ecx
	.loc 1 257 83 view .LVU349
	movq	%rax, %rbp
.LVL219:
	.loc 1 257 9 view .LVU350
	xorl	%eax, %eax
	call	fprintf
.LVL220:
	.loc 1 258 9 is_stmt 1 view .LVU351
	movl	$.LC2, %edi
	call	perror
.LVL221:
	.loc 1 259 9 view .LVU352
	movl	0(%rbp), %edi
	call	exit
.LVL222:
.L52:
	.loc 1 262 1 is_stmt 0 view .LVU353
	movl	%ebx, %eax
.LVL223:
	.loc 1 262 1 view .LVU354
	popq	%rbx
	.cfi_def_cfa_offset 24
.LVL224:
	.loc 1 262 1 view .LVU355
	popq	%rbp
	.cfi_def_cfa_offset 16
.LVL225:
	.loc 1 262 1 view .LVU356
	popq	%r12
	.cfi_def_cfa_offset 8
.LVL226:
	.loc 1 262 1 view .LVU357
	ret
	.cfi_endproc
.LFE22:
	.size	putchar_c, .-putchar_c
	.section	.rodata.str1.1
.LC18:
	.string	"from puts_s str = %s errno = %d\n"
	.text
	.globl	puts_c
	.type	puts_c, @function
puts_c:
.LVL227:
.LFB23:
	.loc 1 265 1 is_stmt 1 view -0
	.cfi_startproc
	.loc 1 266 5 view .LVU359
	.loc 1 265 1 is_stmt 0 view .LVU360
	pushq	%r12
	.cfi_def_cfa_offset 16
	.cfi_offset 12, -16
	movl	%edx, %r12d
	pushq	%rbp
	.cfi_def_cfa_offset 24
	.cfi_offset 6, -24
	movq	%rdi, %rbp
	pushq	%rbx
	.cfi_def_cfa_offset 32
	.cfi_offset 3, -32
	.loc 1 265 1 view .LVU361
	movq	%rsi, %rbx
	.loc 1 266 13 view .LVU362
	call	puts
.LVL228:
	.loc 1 267 5 is_stmt 1 view .LVU363
	.loc 1 267 8 is_stmt 0 view .LVU364
	cmpl	$-1, %eax
	jne	.L55
	.loc 1 269 9 is_stmt 1 view .LVU365
	movq	stderr(%rip), %rdi
	movq	%rbx, %rdx
	movl	%r12d, %ecx
	xorl	%eax, %eax
.LVL229:
	.loc 1 269 9 is_stmt 0 view .LVU366
	movl	$.LC0, %esi
	call	fprintf
.LVL230:
	.loc 1 270 9 is_stmt 1 view .LVU367
	.loc 1 270 67 is_stmt 0 view .LVU368
	call	__errno_location
.LVL231:
	.loc 1 270 9 view .LVU369
	movq	stderr(%rip), %rdi
	movq	%rbp, %rdx
	movl	$.LC18, %esi
	movl	(%rax), %ecx
	.loc 1 270 67 view .LVU370
	movq	%rax, %rbx
.LVL232:
	.loc 1 270 9 view .LVU371
	xorl	%eax, %eax
	call	fprintf
.LVL233:
	.loc 1 271 9 is_stmt 1 view .LVU372
	movl	$.LC2, %edi
	call	perror
.LVL234:
	.loc 1 272 9 view .LVU373
	movl	(%rbx), %edi
	call	exit
.LVL235:
.L55:
	.loc 1 275 1 is_stmt 0 view .LVU374
	popq	%rbx
	.cfi_def_cfa_offset 24
.LVL236:
	.loc 1 275 1 view .LVU375
	popq	%rbp
	.cfi_def_cfa_offset 16
.LVL237:
	.loc 1 275 1 view .LVU376
	popq	%r12
	.cfi_def_cfa_offset 8
.LVL238:
	.loc 1 275 1 view .LVU377
	ret
	.cfi_endproc
.LFE23:
	.size	puts_c, .-puts_c
	.section	.rodata.str1.1
.LC19:
	.string	"from remove_c filename = %s, errno = %d\n"
	.text
	.globl	remove_c
	.type	remove_c, @function
remove_c:
.LVL239:
.LFB24:
	.loc 1 278 1 is_stmt 1 view -0
	.cfi_startproc
	.loc 1 279 5 view .LVU379
	.loc 1 278 1 is_stmt 0 view .LVU380
	pushq	%r12
	.cfi_def_cfa_offset 16
	.cfi_offset 12, -16
	movl	%edx, %r12d
	pushq	%rbp
	.cfi_def_cfa_offset 24
	.cfi_offset 6, -24
	movq	%rdi, %rbp
	pushq	%rbx
	.cfi_def_cfa_offset 32
	.cfi_offset 3, -32
	.loc 1 278 1 view .LVU381
	movq	%rsi, %rbx
	.loc 1 279 13 view .LVU382
	call	remove
.LVL240:
	.loc 1 280 5 is_stmt 1 view .LVU383
	.loc 1 280 8 is_stmt 0 view .LVU384
	testl	%eax, %eax
	je	.L59
	.loc 1 282 9 is_stmt 1 view .LVU385
	movq	stderr(%rip), %rdi
	movq	%rbx, %rdx
	movl	%r12d, %ecx
	xorl	%eax, %eax
.LVL241:
	.loc 1 282 9 is_stmt 0 view .LVU386
	movl	$.LC0, %esi
	call	fprintf
.LVL242:
	.loc 1 283 9 is_stmt 1 view .LVU387
	.loc 1 283 80 is_stmt 0 view .LVU388
	call	__errno_location
.LVL243:
	.loc 1 283 9 view .LVU389
	movq	stderr(%rip), %rdi
	movq	%rbp, %rdx
	movl	$.LC19, %esi
	movl	(%rax), %ecx
	.loc 1 283 80 view .LVU390
	movq	%rax, %rbx
.LVL244:
	.loc 1 283 9 view .LVU391
	xorl	%eax, %eax
	call	fprintf
.LVL245:
	.loc 1 284 9 is_stmt 1 view .LVU392
	movl	$.LC2, %edi
	call	perror
.LVL246:
	.loc 1 285 9 view .LVU393
	movl	(%rbx), %edi
	call	exit
.LVL247:
.L59:
	.loc 1 287 5 view .LVU394
	.loc 1 288 1 is_stmt 0 view .LVU395
	popq	%rbx
	.cfi_def_cfa_offset 24
.LVL248:
	.loc 1 288 1 view .LVU396
	xorl	%eax, %eax
.LVL249:
	.loc 1 288 1 view .LVU397
	popq	%rbp
	.cfi_def_cfa_offset 16
.LVL250:
	.loc 1 288 1 view .LVU398
	popq	%r12
	.cfi_def_cfa_offset 8
.LVL251:
	.loc 1 288 1 view .LVU399
	ret
	.cfi_endproc
.LFE24:
	.size	remove_c, .-remove_c
	.section	.rodata.str1.1
.LC20:
	.string	"from is_ist_c filename = %s, errno = %d\n"
	.text
	.globl	is_ist_c
	.type	is_ist_c, @function
is_ist_c:
.LVL252:
.LFB25:
	.loc 1 309 1 is_stmt 1 view -0
	.cfi_startproc
	.loc 1 310 5 view .LVU401
	.loc 1 309 1 is_stmt 0 view .LVU402
	pushq	%r12
	.cfi_def_cfa_offset 16
	.cfi_offset 12, -16
	movl	%edx, %r12d
	pushq	%rbp
	.cfi_def_cfa_offset 24
	.cfi_offset 6, -24
	movq	%rdi, %rbp
	pushq	%rbx
	.cfi_def_cfa_offset 32
	.cfi_offset 3, -32
	.loc 1 309 1 view .LVU403
	movq	%rsi, %rbx
	.loc 1 310 13 view .LVU404
	xorl	%esi, %esi
.LVL253:
	.loc 1 310 13 view .LVU405
	call	access
.LVL254:
	.loc 1 311 5 is_stmt 1 view .LVU406
	.loc 1 311 8 is_stmt 0 view .LVU407
	cmpl	$-1, %eax
	jne	.L61
	.loc 1 313 9 is_stmt 1 view .LVU408
	movq	stderr(%rip), %rdi
	movq	%rbx, %rdx
	movl	%r12d, %ecx
	xorl	%eax, %eax
.LVL255:
	.loc 1 313 9 is_stmt 0 view .LVU409
	movl	$.LC0, %esi
	call	fprintf
.LVL256:
	.loc 1 314 9 is_stmt 1 view .LVU410
	.loc 1 314 80 is_stmt 0 view .LVU411
	call	__errno_location
.LVL257:
	.loc 1 314 9 view .LVU412
	movq	stderr(%rip), %rdi
	movq	%rbp, %rdx
	movl	$.LC20, %esi
	movl	(%rax), %ecx
	.loc 1 314 80 view .LVU413
	movq	%rax, %rbx
.LVL258:
	.loc 1 314 9 view .LVU414
	xorl	%eax, %eax
	call	fprintf
.LVL259:
	.loc 1 315 9 is_stmt 1 view .LVU415
	movl	$.LC2, %edi
	call	perror
.LVL260:
	.loc 1 316 9 view .LVU416
	movl	(%rbx), %edi
	call	exit
.LVL261:
.L61:
	.loc 1 319 1 is_stmt 0 view .LVU417
	popq	%rbx
	.cfi_def_cfa_offset 24
.LVL262:
	.loc 1 319 1 view .LVU418
	popq	%rbp
	.cfi_def_cfa_offset 16
.LVL263:
	.loc 1 319 1 view .LVU419
	popq	%r12
	.cfi_def_cfa_offset 8
.LVL264:
	.loc 1 319 1 view .LVU420
	ret
	.cfi_endproc
.LFE25:
	.size	is_ist_c, .-is_ist_c
	.globl	or_ist_
	.type	or_ist_, @function
or_ist_:
.LVL265:
.LFB26:
	.loc 1 322 1 is_stmt 1 view -0
	.cfi_startproc
	.loc 1 323 5 view .LVU422
	.loc 1 322 1 is_stmt 0 view .LVU423
	pushq	%rax
	.cfi_def_cfa_offset 16
	.loc 1 323 13 view .LVU424
	xorl	%esi, %esi
	call	access
.LVL266:
	.loc 1 324 1 view .LVU425
	popq	%rdx
	.cfi_def_cfa_offset 8
	.loc 1 323 33 view .LVU426
	incl	%eax
	setne	%al
	movzbl	%al, %eax
	.loc 1 324 1 view .LVU427
	ret
	.cfi_endproc
.LFE26:
	.size	or_ist_, .-or_ist_
	.section	.rodata.str1.1
.LC21:
	.string	"\ninfo:%s, ftell(stream) = %ld\n"
	.text
	.globl	prpos_
	.type	prpos_, @function
prpos_:
.LVL267:
.LFB27:
	.loc 1 327 1 is_stmt 1 view -0
	.cfi_startproc
	.loc 1 328 5 view .LVU429
	.loc 1 327 1 is_stmt 0 view .LVU430
	subq	$24, %rsp
	.cfi_def_cfa_offset 32
	.loc 1 327 1 view .LVU431
	movq	%rsi, 8(%rsp)
	.loc 1 328 5 view .LVU432
	call	ftell
.LVL268:
	.loc 1 328 5 view .LVU433
	movq	8(%rsp), %rsi
	movl	$.LC21, %edi
	.loc 1 329 1 view .LVU434
	addq	$24, %rsp
	.cfi_def_cfa_offset 8
	.loc 1 328 5 view .LVU435
	movq	%rax, %rdx
	xorl	%eax, %eax
	jmp	printf
.LVL269:
	.cfi_endproc
.LFE27:
	.size	prpos_, .-prpos_
.Letext0:
	.file 2 "/usr/lib/gcc/x86_64-redhat-linux/12/include/stddef.h"
	.file 3 "/usr/include/bits/types.h"
	.file 4 "/usr/include/bits/types/__mbstate_t.h"
	.file 5 "/usr/include/bits/types/__fpos_t.h"
	.file 6 "/usr/include/bits/types/struct_FILE.h"
	.file 7 "/usr/include/bits/types/FILE.h"
	.file 8 "/usr/include/stdio.h"
	.file 9 "/usr/include/unistd.h"
	.file 10 "/usr/include/stdlib.h"
	.file 11 "/usr/include/errno.h"
	.section	.note.GNU-stack,"",@progbits
