	.file	"lc_0.c"
	.text
.Ltext0:
	.file 0 "/home/st/start/communis/Deploy_store/.qa/main_repo_fn/dir_c_/_c_/_man/mipt/Clang/1.coffe_c/10_10_CoffeeFileStr/8_pic_rect_myvar_cpjs" "lib/lc_0.c"
	.globl	fill_rand_lc_0_MxV_Ac_Ar
	.type	fill_rand_lc_0_MxV_Ac_Ar, @function
fill_rand_lc_0_MxV_Ac_Ar:
.LFB6:
	.file 1 "lib/lc_0.c"
	.loc 1 21 1
	.cfi_startproc
	pushq	%rbp
	.cfi_def_cfa_offset 16
	.cfi_offset 6, -16
	movq	%rsp, %rbp
	.cfi_def_cfa_register 6
	subq	$32, %rsp
	movl	%edi, -20(%rbp)
	movl	%esi, -24(%rbp)
	movq	%rdx, -32(%rbp)
	.loc 1 24 11
	movl	$0, %edi
	call	time
	.loc 1 24 5
	movl	%eax, %edi
	call	srand
.LBB2:
	.loc 1 25 14
	movl	$0, -4(%rbp)
	.loc 1 25 5
	jmp	.L2
.L3:
	.loc 1 27 18 discriminator 3
	call	rand
	.loc 1 27 12 discriminator 3
	movl	-4(%rbp), %edx
	movslq	%edx, %rdx
	leaq	0(,%rdx,4), %rcx
	movq	-32(%rbp), %rdx
	addq	%rdx, %rcx
	.loc 1 27 25 discriminator 3
	cltd
	idivl	-20(%rbp)
	movl	%edx, %eax
	.loc 1 27 16 discriminator 3
	movl	%eax, (%rcx)
	.loc 1 25 32 discriminator 3
	addl	$1, -4(%rbp)
.L2:
	.loc 1 25 23 discriminator 1
	movl	-4(%rbp), %eax
	cmpl	-24(%rbp), %eax
	jl	.L3
.LBE2:
	.loc 1 29 1
	nop
	nop
	leave
	.cfi_def_cfa 7, 8
	ret
	.cfi_endproc
.LFE6:
	.size	fill_rand_lc_0_MxV_Ac_Ar, .-fill_rand_lc_0_MxV_Ac_Ar
	.section	.rodata
.LC0:
	.string	"%4d"
	.text
	.globl	pr_int_arr_lc_0_Ac_Ar
	.type	pr_int_arr_lc_0_Ac_Ar, @function
pr_int_arr_lc_0_Ac_Ar:
.LFB7:
	.loc 1 32 1
	.cfi_startproc
	pushq	%rbp
	.cfi_def_cfa_offset 16
	.cfi_offset 6, -16
	movq	%rsp, %rbp
	.cfi_def_cfa_register 6
	subq	$32, %rsp
	movl	%edi, -20(%rbp)
	movq	%rsi, -32(%rbp)
.LBB3:
	.loc 1 35 14
	movl	$0, -4(%rbp)
	.loc 1 35 5
	jmp	.L5
.L6:
	.loc 1 37 26 discriminator 3
	movl	-4(%rbp), %eax
	cltq
	leaq	0(,%rax,4), %rdx
	movq	-32(%rbp), %rax
	addq	%rdx, %rax
	.loc 1 37 9 discriminator 3
	movl	(%rax), %eax
	movl	%eax, %esi
	movl	$.LC0, %edi
	movl	$0, %eax
	call	printf
	.loc 1 35 32 discriminator 3
	addl	$1, -4(%rbp)
.L5:
	.loc 1 35 23 discriminator 1
	movl	-4(%rbp), %eax
	cmpl	-20(%rbp), %eax
	jl	.L6
.LBE3:
	.loc 1 39 5
	movl	$10, %edi
	call	putchar
	.loc 1 40 1
	nop
	leave
	.cfi_def_cfa 7, 8
	ret
	.cfi_endproc
.LFE7:
	.size	pr_int_arr_lc_0_Ac_Ar, .-pr_int_arr_lc_0_Ac_Ar
	.section	.rodata
.LC1:
	.string	"divisor = %d\n"
	.text
	.globl	is_prime_lc_0_Chint
	.type	is_prime_lc_0_Chint, @function
is_prime_lc_0_Chint:
.LFB8:
	.loc 1 43 1
	.cfi_startproc
	pushq	%rbp
	.cfi_def_cfa_offset 16
	.cfi_offset 6, -16
	movq	%rsp, %rbp
	.cfi_def_cfa_register 6
	subq	$32, %rsp
	movl	%edi, -20(%rbp)
.LBB4:
	.loc 1 44 14
	movl	$2, -4(%rbp)
	.loc 1 44 5
	jmp	.L8
.L11:
	.loc 1 48 20
	movl	-20(%rbp), %eax
	cltd
	idivl	-4(%rbp)
	movl	%edx, %eax
	.loc 1 48 12
	testl	%eax, %eax
	jne	.L9
	.loc 1 50 13
	movl	-4(%rbp), %eax
	movl	%eax, %esi
	movl	$.LC1, %edi
	movl	$0, %eax
	call	printf
	.loc 1 51 20
	movl	$0, %eax
	jmp	.L10
.L9:
	.loc 1 46 10
	addl	$1, -4(%rbp)
.L8:
	.loc 1 45 18
	movl	-4(%rbp), %eax
	imull	%eax, %eax
	.loc 1 45 28
	cmpl	%eax, -20(%rbp)
	jge	.L11
.LBE4:
	.loc 1 54 12
	movl	$1, %eax
.L10:
	.loc 1 55 1
	leave
	.cfi_def_cfa 7, 8
	ret
	.cfi_endproc
.LFE8:
	.size	is_prime_lc_0_Chint, .-is_prime_lc_0_Chint
	.globl	insert_sort_up_lc_0_AcMxV_Ar
	.type	insert_sort_up_lc_0_AcMxV_Ar, @function
insert_sort_up_lc_0_AcMxV_Ar:
.LFB9:
	.loc 1 58 1
	.cfi_startproc
	pushq	%rbp
	.cfi_def_cfa_offset 16
	.cfi_offset 6, -16
	movq	%rsp, %rbp
	.cfi_def_cfa_register 6
	movl	%edi, -20(%rbp)
	movq	%rsi, -32(%rbp)
.LBB5:
	.loc 1 59 17
	movq	$1, -8(%rbp)
	.loc 1 59 5
	jmp	.L13
.L17:
.LBB6:
	.loc 1 61 13
	movq	-8(%rbp), %rax
	movl	%eax, -12(%rbp)
	.loc 1 62 15
	jmp	.L14
.L16:
.LBB7:
	.loc 1 64 24
	movl	-12(%rbp), %eax
	cltq
	salq	$2, %rax
	leaq	-4(%rax), %rdx
	movq	-32(%rbp), %rax
	addq	%rdx, %rax
	.loc 1 64 17
	movl	(%rax), %eax
	movl	%eax, -16(%rbp)
	.loc 1 65 25
	movl	-12(%rbp), %eax
	cltq
	leaq	0(,%rax,4), %rdx
	movq	-32(%rbp), %rax
	addq	%rdx, %rax
	.loc 1 65 14
	movl	-12(%rbp), %edx
	movslq	%edx, %rdx
	salq	$2, %rdx
	leaq	-4(%rdx), %rcx
	movq	-32(%rbp), %rdx
	addq	%rcx, %rdx
	.loc 1 65 25
	movl	(%rax), %eax
	.loc 1 65 22
	movl	%eax, (%rdx)
	.loc 1 66 14
	movl	-12(%rbp), %eax
	cltq
	leaq	0(,%rax,4), %rdx
	movq	-32(%rbp), %rax
	addq	%rax, %rdx
	.loc 1 66 18
	movl	-16(%rbp), %eax
	movl	%eax, (%rdx)
	.loc 1 68 14
	subl	$1, -12(%rbp)
.L14:
.LBE7:
	.loc 1 62 22
	cmpl	$0, -12(%rbp)
	jle	.L15
	.loc 1 62 27 discriminator 1
	movl	-12(%rbp), %eax
	cltq
	salq	$2, %rax
	leaq	-4(%rax), %rdx
	movq	-32(%rbp), %rax
	addq	%rdx, %rax
	movl	(%rax), %edx
	.loc 1 62 38 discriminator 1
	movl	-12(%rbp), %eax
	cltq
	leaq	0(,%rax,4), %rcx
	movq	-32(%rbp), %rax
	addq	%rcx, %rax
	movl	(%rax), %eax
	.loc 1 62 22 discriminator 1
	cmpl	%eax, %edx
	jg	.L16
.L15:
.LBE6:
	.loc 1 59 32 discriminator 2
	addq	$1, -8(%rbp)
.L13:
	.loc 1 59 26 discriminator 1
	movl	-20(%rbp), %eax
	cltq
	cmpq	%rax, -8(%rbp)
	jb	.L17
.LBE5:
	.loc 1 71 1
	nop
	nop
	popq	%rbp
	.cfi_def_cfa 7, 8
	ret
	.cfi_endproc
.LFE9:
	.size	insert_sort_up_lc_0_AcMxV_Ar, .-insert_sort_up_lc_0_AcMxV_Ar
	.globl	insert_sort_down_lc_0_AcMxV_Ar
	.type	insert_sort_down_lc_0_AcMxV_Ar, @function
insert_sort_down_lc_0_AcMxV_Ar:
.LFB10:
	.loc 1 74 1
	.cfi_startproc
	pushq	%rbp
	.cfi_def_cfa_offset 16
	.cfi_offset 6, -16
	movq	%rsp, %rbp
	.cfi_def_cfa_register 6
	movl	%edi, -20(%rbp)
	movq	%rsi, -32(%rbp)
.LBB8:
	.loc 1 75 23
	movl	-20(%rbp), %eax
	subl	$1, %eax
	.loc 1 75 17
	cltq
	movq	%rax, -8(%rbp)
	.loc 1 75 5
	jmp	.L19
.L23:
.LBB9:
	.loc 1 77 13
	movq	-8(%rbp), %rax
	movl	%eax, -12(%rbp)
	.loc 1 78 15
	jmp	.L20
.L22:
.LBB10:
	.loc 1 81 24
	movl	-12(%rbp), %eax
	cltq
	leaq	0(,%rax,4), %rdx
	movq	-32(%rbp), %rax
	addq	%rdx, %rax
	.loc 1 81 17
	movl	(%rax), %eax
	movl	%eax, -16(%rbp)
	.loc 1 82 21
	movl	-12(%rbp), %eax
	cltq
	salq	$2, %rax
	leaq	-4(%rax), %rdx
	movq	-32(%rbp), %rax
	addq	%rdx, %rax
	.loc 1 82 14
	movl	-12(%rbp), %edx
	movslq	%edx, %rdx
	leaq	0(,%rdx,4), %rcx
	movq	-32(%rbp), %rdx
	addq	%rcx, %rdx
	.loc 1 82 21
	movl	(%rax), %eax
	.loc 1 82 18
	movl	%eax, (%rdx)
	.loc 1 83 14
	movl	-12(%rbp), %eax
	cltq
	salq	$2, %rax
	leaq	-4(%rax), %rdx
	movq	-32(%rbp), %rax
	addq	%rax, %rdx
	.loc 1 83 22
	movl	-16(%rbp), %eax
	movl	%eax, (%rdx)
	.loc 1 85 14
	addl	$1, -12(%rbp)
.L20:
.LBE10:
	.loc 1 78 22
	movl	-12(%rbp), %eax
	cmpl	-20(%rbp), %eax
	jge	.L21
	.loc 1 78 27 discriminator 1
	movl	-12(%rbp), %eax
	cltq
	salq	$2, %rax
	leaq	-4(%rax), %rdx
	movq	-32(%rbp), %rax
	addq	%rdx, %rax
	movl	(%rax), %edx
	.loc 1 78 38 discriminator 1
	movl	-12(%rbp), %eax
	cltq
	leaq	0(,%rax,4), %rcx
	movq	-32(%rbp), %rax
	addq	%rcx, %rax
	movl	(%rax), %eax
	.loc 1 78 22 discriminator 1
	cmpl	%eax, %edx
	jl	.L22
.L21:
.LBE9:
	.loc 1 75 36 discriminator 2
	subq	$1, -8(%rbp)
.L19:
	.loc 1 75 30 discriminator 1
	cmpq	$0, -8(%rbp)
	jne	.L23
.LBE8:
	.loc 1 88 1
	nop
	nop
	popq	%rbp
	.cfi_def_cfa 7, 8
	ret
	.cfi_endproc
.LFE10:
	.size	insert_sort_down_lc_0_AcMxV_Ar, .-insert_sort_down_lc_0_AcMxV_Ar
	.globl	gcd_lc_0_int_int
	.type	gcd_lc_0_int_int, @function
gcd_lc_0_int_int:
.LFB11:
	.loc 1 92 1
	.cfi_startproc
	pushq	%rbp
	.cfi_def_cfa_offset 16
	.cfi_offset 6, -16
	movq	%rsp, %rbp
	.cfi_def_cfa_register 6
	subq	$32, %rsp
	movl	%edi, -20(%rbp)
	movl	%esi, -24(%rbp)
	.loc 1 93 8
	cmpl	$0, -24(%rbp)
	jne	.L25
	.loc 1 94 16
	movl	-20(%rbp), %eax
	jmp	.L26
.L25:
	.loc 1 95 9
	movl	-20(%rbp), %eax
	cltd
	idivl	-24(%rbp)
	movl	%edx, -4(%rbp)
	.loc 1 96 12
	movl	-4(%rbp), %edx
	movl	-24(%rbp), %eax
	movl	%edx, %esi
	movl	%eax, %edi
	call	gcd_lc_0_int_int
.L26:
	.loc 1 97 1
	leave
	.cfi_def_cfa 7, 8
	ret
	.cfi_endproc
.LFE11:
	.size	gcd_lc_0_int_int, .-gcd_lc_0_int_int
	.globl	factorial_lc_0_int
	.type	factorial_lc_0_int, @function
factorial_lc_0_int:
.LFB12:
	.loc 1 100 1
	.cfi_startproc
	pushq	%rbp
	.cfi_def_cfa_offset 16
	.cfi_offset 6, -16
	movq	%rsp, %rbp
	.cfi_def_cfa_register 6
	subq	$32, %rsp
	movl	%edi, -20(%rbp)
	.loc 1 101 8
	cmpl	$0, -20(%rbp)
	jne	.L28
	.loc 1 102 16
	movl	$1, %eax
	jmp	.L29
.L28:
	.loc 1 103 20
	movl	-20(%rbp), %eax
	subl	$1, %eax
	movl	%eax, %edi
	call	factorial_lc_0_int
	.loc 1 103 9
	movl	-20(%rbp), %edx
	imull	%edx, %eax
	movl	%eax, -4(%rbp)
	.loc 1 104 12
	movl	-4(%rbp), %eax
.L29:
	.loc 1 105 1
	leave
	.cfi_def_cfa 7, 8
	ret
	.cfi_endproc
.LFE12:
	.size	factorial_lc_0_int, .-factorial_lc_0_int
	.globl	fib_lc_0_int
	.type	fib_lc_0_int, @function
fib_lc_0_int:
.LFB13:
	.loc 1 108 1
	.cfi_startproc
	pushq	%rbp
	.cfi_def_cfa_offset 16
	.cfi_offset 6, -16
	movq	%rsp, %rbp
	.cfi_def_cfa_register 6
	pushq	%rbx
	subq	$40, %rsp
	.cfi_offset 3, -24
	movl	%edi, -36(%rbp)
	.loc 1 109 8
	cmpl	$1, -36(%rbp)
	jg	.L31
	.loc 1 110 16
	movl	-36(%rbp), %eax
	jmp	.L32
.L31:
	.loc 1 111 16
	movl	-36(%rbp), %eax
	subl	$1, %eax
	movl	%eax, %edi
	call	fib_lc_0_int
	movl	%eax, %ebx
	.loc 1 111 38
	movl	-36(%rbp), %eax
	subl	$2, %eax
	movl	%eax, %edi
	call	fib_lc_0_int
	.loc 1 111 9
	addl	%ebx, %eax
	movl	%eax, -20(%rbp)
	.loc 1 112 12
	movl	-20(%rbp), %eax
.L32:
	.loc 1 113 1
	movq	-8(%rbp), %rbx
	leave
	.cfi_def_cfa 7, 8
	ret
	.cfi_endproc
.LFE13:
	.size	fib_lc_0_int, .-fib_lc_0_int
	.section	.rodata
.LC2:
	.string	"n = %d : from %d to %d\n"
	.text
	.globl	hanoi_lc_0_hight_from_to
	.type	hanoi_lc_0_hight_from_to, @function
hanoi_lc_0_hight_from_to:
.LFB14:
	.loc 1 116 1
	.cfi_startproc
	pushq	%rbp
	.cfi_def_cfa_offset 16
	.cfi_offset 6, -16
	movq	%rsp, %rbp
	.cfi_def_cfa_register 6
	subq	$32, %rsp
	movl	%edi, -20(%rbp)
	movl	%esi, -24(%rbp)
	movl	%edx, -28(%rbp)
	.loc 1 118 8
	cmpl	$1, -20(%rbp)
	jne	.L34
	.loc 1 119 9
	movl	-28(%rbp), %ecx
	movl	-24(%rbp), %edx
	movl	-20(%rbp), %eax
	movl	%eax, %esi
	movl	$.LC2, %edi
	movl	$0, %eax
	call	printf
	.loc 1 127 1
	jmp	.L36
.L34:
.LBB11:
	.loc 1 122 21
	movl	$6, %eax
	subl	-24(%rbp), %eax
	.loc 1 122 13
	subl	-28(%rbp), %eax
	movl	%eax, -4(%rbp)
	.loc 1 123 9
	movl	-20(%rbp), %eax
	leal	-1(%rax), %ecx
	movl	-4(%rbp), %edx
	movl	-24(%rbp), %eax
	movl	%eax, %esi
	movl	%ecx, %edi
	call	hanoi_lc_0_hight_from_to
	.loc 1 124 9
	movl	-28(%rbp), %ecx
	movl	-24(%rbp), %edx
	movl	-20(%rbp), %eax
	movl	%eax, %esi
	movl	$.LC2, %edi
	movl	$0, %eax
	call	printf
	.loc 1 125 9
	movl	-20(%rbp), %eax
	leal	-1(%rax), %ecx
	movl	-28(%rbp), %edx
	movl	-4(%rbp), %eax
	movl	%eax, %esi
	movl	%ecx, %edi
	call	hanoi_lc_0_hight_from_to
.L36:
.LBE11:
	.loc 1 127 1
	nop
	leave
	.cfi_def_cfa 7, 8
	ret
	.cfi_endproc
.LFE14:
	.size	hanoi_lc_0_hight_from_to, .-hanoi_lc_0_hight_from_to
.Letext0:
	.file 2 "/usr/lib/gcc/x86_64-redhat-linux/12/include/stddef.h"
	.file 3 "/usr/include/bits/types.h"
	.file 4 "/usr/include/bits/types/time_t.h"
	.file 5 "/usr/include/stdio.h"
	.file 6 "/usr/include/time.h"
	.file 7 "/usr/include/stdlib.h"
	.section	.note.GNU-stack,"",@progbits
