	.file	"socket_1.c"
	.text
.Ltext0:
	.file 0 "/home/st/start/communis/Deploy_store/.qa/main_repo_fn/dir_c_/_c_/_man/mipt/Clang/1.coffe_c/10_10_CoffeeFileStr/8_pic_rect_myvar_cpjs" "lib/socket_1.c"
	.section	.rodata
	.align 8
.LC0:
	.string	"failed in file %s at line # %d\n"
	.align 8
.LC1:
	.string	"from accept_\321\201 socket = %d, errno = %d\n"
.LC2:
	.string	"Error is: "
.LC3:
	.string	"return -1"
.LC4:
	.string	"exit(errno): "
.LC5:
	.string	"return original error"
	.align 8
.LC6:
	.string	"st__re NOT equal (STRE_ERR|STRE_MNS|STRE_EXI)  exit(1) That error NOT treat: "
	.align 8
.LC7:
	.string	" st__if NOT equal STIF_ONE exit(1)"
	.text
	.globl	accept_с
	.type	accept_с, @function
accept_с:
.LFB6:
	.file 1 "lib/socket_1.c"
	.loc 1 53 1
	.cfi_startproc
	pushq	%rbp
	.cfi_def_cfa_offset 16
	.cfi_offset 6, -16
	movq	%rsp, %rbp
	.cfi_def_cfa_register 6
	subq	$64, %rsp
	movl	%edi, -20(%rbp)
	movq	%rsi, -32(%rbp)
	movq	%rdx, -40(%rbp)
	movq	%rcx, -48(%rbp)
	movl	%r8d, -24(%rbp)
	movl	%r9d, -52(%rbp)
	.loc 1 56 16
	movl	16(%rbp), %eax
	andl	$1, %eax
	.loc 1 56 8
	testl	%eax, %eax
	je	.L2
.LBB2:
	.loc 1 58 17
	movq	-40(%rbp), %rdx
	movq	-32(%rbp), %rcx
	movl	-20(%rbp), %eax
	movq	%rcx, %rsi
	movl	%eax, %edi
	call	accept
	movl	%eax, -4(%rbp)
	.loc 1 59 12
	cmpl	$-1, -4(%rbp)
	jne	.L3
	.loc 1 61 24
	movl	-52(%rbp), %eax
	andl	$2, %eax
	.loc 1 61 16
	testl	%eax, %eax
	je	.L4
	.loc 1 63 17
	movq	stderr(%rip), %rax
	movl	-24(%rbp), %ecx
	movq	-48(%rbp), %rdx
	movl	$.LC0, %esi
	movq	%rax, %rdi
	movl	$0, %eax
	call	fprintf
	.loc 1 64 85
	call	__errno_location
	.loc 1 64 17
	movl	(%rax), %ecx
	movq	stderr(%rip), %rax
	movl	-20(%rbp), %edx
	movl	$.LC1, %esi
	movq	%rax, %rdi
	movl	$0, %eax
	call	fprintf
	.loc 1 65 17
	movl	$.LC2, %edi
	call	perror
	.loc 1 66 17
	movq	stdout(%rip), %rax
	movq	%rax, %rdi
	call	fflush
.L4:
	.loc 1 68 24
	movl	24(%rbp), %eax
	andl	$2, %eax
	.loc 1 68 16
	testl	%eax, %eax
	je	.L5
	.loc 1 70 28
	movl	-52(%rbp), %eax
	andl	$2, %eax
	.loc 1 70 20
	testl	%eax, %eax
	je	.L6
	.loc 1 71 21
	movl	$.LC3, %edi
	movl	$0, %eax
	call	printf
.L6:
	.loc 1 72 24
	movl	$-1, %eax
	jmp	.L7
.L5:
	.loc 1 74 29
	movl	24(%rbp), %eax
	andl	$4, %eax
	.loc 1 74 21
	testl	%eax, %eax
	je	.L8
	.loc 1 76 28
	movl	-52(%rbp), %eax
	andl	$2, %eax
	.loc 1 76 20
	testl	%eax, %eax
	je	.L9
	.loc 1 77 21
	movl	$.LC4, %edi
	movl	$0, %eax
	call	printf
.L9:
	.loc 1 78 22
	call	__errno_location
	.loc 1 78 17
	movl	(%rax), %eax
	movl	%eax, %edi
	call	exit
.L8:
	.loc 1 80 29
	movl	24(%rbp), %eax
	andl	$1, %eax
	.loc 1 80 21
	testl	%eax, %eax
	je	.L10
	.loc 1 82 28
	movl	-52(%rbp), %eax
	andl	$2, %eax
	.loc 1 82 20
	testl	%eax, %eax
	je	.L11
	.loc 1 83 21
	movl	$.LC5, %edi
	movl	$0, %eax
	call	printf
.L11:
	.loc 1 84 24
	movl	-4(%rbp), %eax
	jmp	.L7
.L10:
	.loc 1 88 17
	movq	stderr(%rip), %rax
	movl	-24(%rbp), %ecx
	movq	-48(%rbp), %rdx
	movl	$.LC0, %esi
	movq	%rax, %rdi
	movl	$0, %eax
	call	fprintf
	.loc 1 89 85
	call	__errno_location
	.loc 1 89 17
	movl	(%rax), %ecx
	movq	stderr(%rip), %rax
	movl	-20(%rbp), %edx
	movl	$.LC1, %esi
	movq	%rax, %rdi
	movl	$0, %eax
	call	fprintf
	.loc 1 90 17
	movl	$.LC6, %edi
	call	perror
	.loc 1 91 17
	movl	$1, %edi
	call	exit
.L3:
	.loc 1 94 16
	movl	-4(%rbp), %eax
	jmp	.L7
.L2:
.LBE2:
	.loc 1 98 9
	movl	$.LC7, %edi
	call	perror
	.loc 1 99 9
	movl	$1, %edi
	call	exit
.L7:
	.loc 1 102 1
	leave
	.cfi_def_cfa 7, 8
	ret
	.cfi_endproc
.LFE6:
	.size	accept_с, .-accept_с
	.section	.rodata
	.align 8
.LC8:
	.string	"from bind_\321\201 socket = %d, address_len = %d, errno = %d\n"
	.text
	.globl	bind_с
	.type	bind_с, @function
bind_с:
.LFB7:
	.loc 1 105 1
	.cfi_startproc
	pushq	%rbp
	.cfi_def_cfa_offset 16
	.cfi_offset 6, -16
	movq	%rsp, %rbp
	.cfi_def_cfa_register 6
	subq	$48, %rsp
	movl	%edi, -20(%rbp)
	movq	%rsi, -32(%rbp)
	movl	%edx, -24(%rbp)
	movq	%rcx, -40(%rbp)
	movl	%r8d, -44(%rbp)
	movl	%r9d, -48(%rbp)
	.loc 1 108 16
	movl	16(%rbp), %eax
	andl	$1, %eax
	.loc 1 108 8
	testl	%eax, %eax
	je	.L13
.LBB3:
	.loc 1 110 17
	movl	-24(%rbp), %edx
	movq	-32(%rbp), %rcx
	movl	-20(%rbp), %eax
	movq	%rcx, %rsi
	movl	%eax, %edi
	call	bind
	movl	%eax, -4(%rbp)
	.loc 1 111 12
	cmpl	$-1, -4(%rbp)
	jne	.L14
	.loc 1 113 24
	movl	-48(%rbp), %eax
	andl	$2, %eax
	.loc 1 113 16
	testl	%eax, %eax
	je	.L15
	.loc 1 115 17
	movq	stderr(%rip), %rax
	movl	-44(%rbp), %ecx
	movq	-40(%rbp), %rdx
	movl	$.LC0, %esi
	movq	%rax, %rdi
	movl	$0, %eax
	call	fprintf
	.loc 1 116 114
	call	__errno_location
	.loc 1 116 17
	movl	(%rax), %esi
	movq	stderr(%rip), %rax
	movl	-24(%rbp), %ecx
	movl	-20(%rbp), %edx
	movl	%esi, %r8d
	movl	$.LC8, %esi
	movq	%rax, %rdi
	movl	$0, %eax
	call	fprintf
	.loc 1 117 17
	movl	$.LC2, %edi
	call	perror
	.loc 1 118 17
	movq	stdout(%rip), %rax
	movq	%rax, %rdi
	call	fflush
.L15:
	.loc 1 120 24
	movl	24(%rbp), %eax
	andl	$2, %eax
	.loc 1 120 16
	testl	%eax, %eax
	je	.L16
	.loc 1 122 28
	movl	-48(%rbp), %eax
	andl	$2, %eax
	.loc 1 122 20
	testl	%eax, %eax
	je	.L17
	.loc 1 123 21
	movl	$.LC3, %edi
	movl	$0, %eax
	call	printf
.L17:
	.loc 1 124 24
	movl	$-1, %eax
	jmp	.L18
.L16:
	.loc 1 126 29
	movl	24(%rbp), %eax
	andl	$4, %eax
	.loc 1 126 21
	testl	%eax, %eax
	je	.L19
	.loc 1 128 28
	movl	-48(%rbp), %eax
	andl	$2, %eax
	.loc 1 128 20
	testl	%eax, %eax
	je	.L20
	.loc 1 129 21
	movl	$.LC4, %edi
	movl	$0, %eax
	call	printf
.L20:
	.loc 1 130 22
	call	__errno_location
	.loc 1 130 17
	movl	(%rax), %eax
	movl	%eax, %edi
	call	exit
.L19:
	.loc 1 132 29
	movl	24(%rbp), %eax
	andl	$1, %eax
	.loc 1 132 21
	testl	%eax, %eax
	je	.L21
	.loc 1 134 28
	movl	-48(%rbp), %eax
	andl	$2, %eax
	.loc 1 134 20
	testl	%eax, %eax
	je	.L22
	.loc 1 135 21
	movl	$.LC5, %edi
	movl	$0, %eax
	call	printf
.L22:
	.loc 1 136 24
	movl	-4(%rbp), %eax
	jmp	.L18
.L21:
	.loc 1 140 17
	movq	stderr(%rip), %rax
	movl	-44(%rbp), %ecx
	movq	-40(%rbp), %rdx
	movl	$.LC0, %esi
	movq	%rax, %rdi
	movl	$0, %eax
	call	fprintf
	.loc 1 141 114
	call	__errno_location
	.loc 1 141 17
	movl	(%rax), %esi
	movq	stderr(%rip), %rax
	movl	-24(%rbp), %ecx
	movl	-20(%rbp), %edx
	movl	%esi, %r8d
	movl	$.LC8, %esi
	movq	%rax, %rdi
	movl	$0, %eax
	call	fprintf
	.loc 1 142 17
	movl	$.LC6, %edi
	call	perror
	.loc 1 143 17
	movl	$1, %edi
	call	exit
.L14:
	.loc 1 146 16
	movl	-4(%rbp), %eax
	jmp	.L18
.L13:
.LBE3:
	.loc 1 150 9
	movl	$.LC7, %edi
	call	perror
	.loc 1 151 9
	movl	$1, %edi
	call	exit
.L18:
	.loc 1 154 1
	leave
	.cfi_def_cfa 7, 8
	ret
	.cfi_endproc
.LFE7:
	.size	bind_с, .-bind_с
	.section	.rodata
	.align 8
.LC9:
	.string	"from connect_\321\201 socket = %d, errno = %d\n"
	.text
	.globl	connect_с
	.type	connect_с, @function
connect_с:
.LFB8:
	.loc 1 157 1
	.cfi_startproc
	pushq	%rbp
	.cfi_def_cfa_offset 16
	.cfi_offset 6, -16
	movq	%rsp, %rbp
	.cfi_def_cfa_register 6
	subq	$48, %rsp
	movl	%edi, -20(%rbp)
	movq	%rsi, -32(%rbp)
	movl	%edx, -24(%rbp)
	movq	%rcx, -40(%rbp)
	movl	%r8d, -44(%rbp)
	movl	%r9d, -48(%rbp)
	.loc 1 160 16
	movl	16(%rbp), %eax
	andl	$1, %eax
	.loc 1 160 8
	testl	%eax, %eax
	je	.L24
.LBB4:
	.loc 1 162 17
	movl	-24(%rbp), %edx
	movq	-32(%rbp), %rcx
	movl	-20(%rbp), %eax
	movq	%rcx, %rsi
	movl	%eax, %edi
	call	connect
	movl	%eax, -4(%rbp)
	.loc 1 163 12
	cmpl	$-1, -4(%rbp)
	jne	.L25
	.loc 1 165 24
	movl	-48(%rbp), %eax
	andl	$2, %eax
	.loc 1 165 16
	testl	%eax, %eax
	je	.L26
	.loc 1 167 17
	movq	stderr(%rip), %rax
	movl	-44(%rbp), %ecx
	movq	-40(%rbp), %rdx
	movl	$.LC0, %esi
	movq	%rax, %rdi
	movl	$0, %eax
	call	fprintf
	.loc 1 168 86
	call	__errno_location
	.loc 1 168 17
	movl	(%rax), %ecx
	movq	stderr(%rip), %rax
	movl	-20(%rbp), %edx
	movl	$.LC9, %esi
	movq	%rax, %rdi
	movl	$0, %eax
	call	fprintf
	.loc 1 169 17
	movl	$.LC2, %edi
	call	perror
	.loc 1 170 17
	movq	stdout(%rip), %rax
	movq	%rax, %rdi
	call	fflush
.L26:
	.loc 1 172 24
	movl	24(%rbp), %eax
	andl	$2, %eax
	.loc 1 172 16
	testl	%eax, %eax
	je	.L27
	.loc 1 174 28
	movl	-48(%rbp), %eax
	andl	$2, %eax
	.loc 1 174 20
	testl	%eax, %eax
	je	.L28
	.loc 1 175 21
	movl	$.LC3, %edi
	movl	$0, %eax
	call	printf
.L28:
	.loc 1 176 24
	movl	$-1, %eax
	jmp	.L29
.L27:
	.loc 1 178 29
	movl	24(%rbp), %eax
	andl	$4, %eax
	.loc 1 178 21
	testl	%eax, %eax
	je	.L30
	.loc 1 180 28
	movl	-48(%rbp), %eax
	andl	$2, %eax
	.loc 1 180 20
	testl	%eax, %eax
	je	.L31
	.loc 1 181 21
	movl	$.LC4, %edi
	movl	$0, %eax
	call	printf
.L31:
	.loc 1 182 22
	call	__errno_location
	.loc 1 182 17
	movl	(%rax), %eax
	movl	%eax, %edi
	call	exit
.L30:
	.loc 1 184 29
	movl	24(%rbp), %eax
	andl	$1, %eax
	.loc 1 184 21
	testl	%eax, %eax
	je	.L32
	.loc 1 186 28
	movl	-48(%rbp), %eax
	andl	$2, %eax
	.loc 1 186 20
	testl	%eax, %eax
	je	.L33
	.loc 1 187 21
	movl	$.LC5, %edi
	movl	$0, %eax
	call	printf
.L33:
	.loc 1 188 24
	movl	-4(%rbp), %eax
	jmp	.L29
.L32:
	.loc 1 192 17
	movq	stderr(%rip), %rax
	movl	-44(%rbp), %ecx
	movq	-40(%rbp), %rdx
	movl	$.LC0, %esi
	movq	%rax, %rdi
	movl	$0, %eax
	call	fprintf
	.loc 1 193 86
	call	__errno_location
	.loc 1 193 17
	movl	(%rax), %ecx
	movq	stderr(%rip), %rax
	movl	-20(%rbp), %edx
	movl	$.LC9, %esi
	movq	%rax, %rdi
	movl	$0, %eax
	call	fprintf
	.loc 1 194 17
	movl	$.LC6, %edi
	call	perror
	.loc 1 195 17
	movl	$1, %edi
	call	exit
.L25:
	.loc 1 198 16
	movl	-4(%rbp), %eax
	jmp	.L29
.L24:
.LBE4:
	.loc 1 202 9
	movl	$.LC7, %edi
	call	perror
	.loc 1 203 9
	movl	$1, %edi
	call	exit
.L29:
	.loc 1 206 1
	leave
	.cfi_def_cfa 7, 8
	ret
	.cfi_endproc
.LFE8:
	.size	connect_с, .-connect_с
	.section	.rodata
	.align 8
.LC10:
	.string	"from getsockname_\321\201 socket = %d, errno = %d\n"
	.text
	.globl	getsockname_с
	.type	getsockname_с, @function
getsockname_с:
.LFB9:
	.loc 1 210 1
	.cfi_startproc
	pushq	%rbp
	.cfi_def_cfa_offset 16
	.cfi_offset 6, -16
	movq	%rsp, %rbp
	.cfi_def_cfa_register 6
	subq	$64, %rsp
	movl	%edi, -20(%rbp)
	movq	%rsi, -32(%rbp)
	movq	%rdx, -40(%rbp)
	movq	%rcx, -48(%rbp)
	movl	%r8d, -24(%rbp)
	movl	%r9d, -52(%rbp)
	.loc 1 213 16
	movl	16(%rbp), %eax
	andl	$1, %eax
	.loc 1 213 8
	testl	%eax, %eax
	je	.L35
.LBB5:
	.loc 1 215 17
	movq	-40(%rbp), %rdx
	movq	-32(%rbp), %rcx
	movl	-20(%rbp), %eax
	movq	%rcx, %rsi
	movl	%eax, %edi
	call	getsockname
	movl	%eax, -4(%rbp)
	.loc 1 216 12
	cmpl	$-1, -4(%rbp)
	jne	.L36
	.loc 1 218 24
	movl	-52(%rbp), %eax
	andl	$2, %eax
	.loc 1 218 16
	testl	%eax, %eax
	je	.L37
	.loc 1 220 17
	movq	stderr(%rip), %rax
	movl	-24(%rbp), %ecx
	movq	-48(%rbp), %rdx
	movl	$.LC0, %esi
	movq	%rax, %rdi
	movl	$0, %eax
	call	fprintf
	.loc 1 221 90
	call	__errno_location
	.loc 1 221 17
	movl	(%rax), %ecx
	movq	stderr(%rip), %rax
	movl	-20(%rbp), %edx
	movl	$.LC10, %esi
	movq	%rax, %rdi
	movl	$0, %eax
	call	fprintf
	.loc 1 222 17
	movl	$.LC2, %edi
	call	perror
	.loc 1 223 17
	movq	stdout(%rip), %rax
	movq	%rax, %rdi
	call	fflush
.L37:
	.loc 1 225 24
	movl	24(%rbp), %eax
	andl	$2, %eax
	.loc 1 225 16
	testl	%eax, %eax
	je	.L38
	.loc 1 227 28
	movl	-52(%rbp), %eax
	andl	$2, %eax
	.loc 1 227 20
	testl	%eax, %eax
	je	.L39
	.loc 1 228 21
	movl	$.LC3, %edi
	movl	$0, %eax
	call	printf
.L39:
	.loc 1 229 24
	movl	$-1, %eax
	jmp	.L40
.L38:
	.loc 1 231 29
	movl	24(%rbp), %eax
	andl	$4, %eax
	.loc 1 231 21
	testl	%eax, %eax
	je	.L41
	.loc 1 233 28
	movl	-52(%rbp), %eax
	andl	$2, %eax
	.loc 1 233 20
	testl	%eax, %eax
	je	.L42
	.loc 1 234 21
	movl	$.LC4, %edi
	movl	$0, %eax
	call	printf
.L42:
	.loc 1 235 22
	call	__errno_location
	.loc 1 235 17
	movl	(%rax), %eax
	movl	%eax, %edi
	call	exit
.L41:
	.loc 1 237 29
	movl	24(%rbp), %eax
	andl	$1, %eax
	.loc 1 237 21
	testl	%eax, %eax
	je	.L43
	.loc 1 239 28
	movl	-52(%rbp), %eax
	andl	$2, %eax
	.loc 1 239 20
	testl	%eax, %eax
	je	.L44
	.loc 1 240 21
	movl	$.LC5, %edi
	movl	$0, %eax
	call	printf
.L44:
	.loc 1 241 24
	movl	-4(%rbp), %eax
	jmp	.L40
.L43:
	.loc 1 245 17
	movq	stderr(%rip), %rax
	movl	-24(%rbp), %ecx
	movq	-48(%rbp), %rdx
	movl	$.LC0, %esi
	movq	%rax, %rdi
	movl	$0, %eax
	call	fprintf
	.loc 1 246 90
	call	__errno_location
	.loc 1 246 17
	movl	(%rax), %ecx
	movq	stderr(%rip), %rax
	movl	-20(%rbp), %edx
	movl	$.LC10, %esi
	movq	%rax, %rdi
	movl	$0, %eax
	call	fprintf
	.loc 1 247 17
	movl	$.LC6, %edi
	call	perror
	.loc 1 248 17
	movl	$1, %edi
	call	exit
.L36:
	.loc 1 251 16
	movl	-4(%rbp), %eax
	jmp	.L40
.L35:
.LBE5:
	.loc 1 255 9
	movl	$.LC7, %edi
	call	perror
	.loc 1 256 9
	movl	$1, %edi
	call	exit
.L40:
	.loc 1 259 1
	leave
	.cfi_def_cfa 7, 8
	ret
	.cfi_endproc
.LFE9:
	.size	getsockname_с, .-getsockname_с
	.section	.rodata
	.align 8
.LC11:
	.string	"from listen_\321\201 socket = %d, backlog = %d, errno = %d\n"
	.text
	.globl	listen_с
	.type	listen_с, @function
listen_с:
.LFB10:
	.loc 1 264 1
	.cfi_startproc
	pushq	%rbp
	.cfi_def_cfa_offset 16
	.cfi_offset 6, -16
	movq	%rsp, %rbp
	.cfi_def_cfa_register 6
	subq	$48, %rsp
	movl	%edi, -20(%rbp)
	movl	%esi, -24(%rbp)
	movq	%rdx, -32(%rbp)
	movl	%ecx, -36(%rbp)
	movl	%r8d, -40(%rbp)
	movl	%r9d, -44(%rbp)
	.loc 1 267 16
	movl	-44(%rbp), %eax
	andl	$1, %eax
	.loc 1 267 8
	testl	%eax, %eax
	je	.L46
.LBB6:
	.loc 1 269 17
	movl	-24(%rbp), %edx
	movl	-20(%rbp), %eax
	movl	%edx, %esi
	movl	%eax, %edi
	call	listen
	movl	%eax, -4(%rbp)
	.loc 1 270 12
	cmpl	$-1, -4(%rbp)
	jne	.L47
	.loc 1 272 24
	movl	-40(%rbp), %eax
	andl	$2, %eax
	.loc 1 272 16
	testl	%eax, %eax
	je	.L48
	.loc 1 274 17
	movq	stderr(%rip), %rax
	movl	-36(%rbp), %ecx
	movq	-32(%rbp), %rdx
	movl	$.LC0, %esi
	movq	%rax, %rdi
	movl	$0, %eax
	call	fprintf
	.loc 1 275 108
	call	__errno_location
	.loc 1 275 17
	movl	(%rax), %esi
	movq	stderr(%rip), %rax
	movl	-24(%rbp), %ecx
	movl	-20(%rbp), %edx
	movl	%esi, %r8d
	movl	$.LC11, %esi
	movq	%rax, %rdi
	movl	$0, %eax
	call	fprintf
	.loc 1 276 17
	movl	$.LC2, %edi
	call	perror
	.loc 1 277 17
	movq	stdout(%rip), %rax
	movq	%rax, %rdi
	call	fflush
.L48:
	.loc 1 279 24
	movl	16(%rbp), %eax
	andl	$2, %eax
	.loc 1 279 16
	testl	%eax, %eax
	je	.L49
	.loc 1 281 28
	movl	-40(%rbp), %eax
	andl	$2, %eax
	.loc 1 281 20
	testl	%eax, %eax
	je	.L50
	.loc 1 282 21
	movl	$.LC3, %edi
	movl	$0, %eax
	call	printf
.L50:
	.loc 1 283 24
	movl	$-1, %eax
	jmp	.L51
.L49:
	.loc 1 285 29
	movl	16(%rbp), %eax
	andl	$4, %eax
	.loc 1 285 21
	testl	%eax, %eax
	je	.L52
	.loc 1 287 28
	movl	-40(%rbp), %eax
	andl	$2, %eax
	.loc 1 287 20
	testl	%eax, %eax
	je	.L53
	.loc 1 288 21
	movl	$.LC4, %edi
	movl	$0, %eax
	call	printf
.L53:
	.loc 1 289 22
	call	__errno_location
	.loc 1 289 17
	movl	(%rax), %eax
	movl	%eax, %edi
	call	exit
.L52:
	.loc 1 291 29
	movl	16(%rbp), %eax
	andl	$1, %eax
	.loc 1 291 21
	testl	%eax, %eax
	je	.L54
	.loc 1 293 28
	movl	-40(%rbp), %eax
	andl	$2, %eax
	.loc 1 293 20
	testl	%eax, %eax
	je	.L55
	.loc 1 294 21
	movl	$.LC5, %edi
	movl	$0, %eax
	call	printf
.L55:
	.loc 1 295 24
	movl	-4(%rbp), %eax
	jmp	.L51
.L54:
	.loc 1 299 17
	movq	stderr(%rip), %rax
	movl	-36(%rbp), %ecx
	movq	-32(%rbp), %rdx
	movl	$.LC0, %esi
	movq	%rax, %rdi
	movl	$0, %eax
	call	fprintf
	.loc 1 300 108
	call	__errno_location
	.loc 1 300 17
	movl	(%rax), %esi
	movq	stderr(%rip), %rax
	movl	-24(%rbp), %ecx
	movl	-20(%rbp), %edx
	movl	%esi, %r8d
	movl	$.LC11, %esi
	movq	%rax, %rdi
	movl	$0, %eax
	call	fprintf
	.loc 1 301 17
	movl	$.LC6, %edi
	call	perror
	.loc 1 302 17
	movl	$1, %edi
	call	exit
.L47:
	.loc 1 305 16
	movl	-4(%rbp), %eax
	jmp	.L51
.L46:
.LBE6:
	.loc 1 309 9
	movl	$.LC7, %edi
	call	perror
	.loc 1 310 9
	movl	$1, %edi
	call	exit
.L51:
	.loc 1 313 1
	leave
	.cfi_def_cfa 7, 8
	ret
	.cfi_endproc
.LFE10:
	.size	listen_с, .-listen_с
	.section	.rodata
	.align 8
.LC12:
	.string	"from recv_\321\201 socket = %d, errno = %d\n"
	.text
	.globl	recv_с
	.type	recv_с, @function
recv_с:
.LFB11:
	.loc 1 316 1
	.cfi_startproc
	pushq	%rbp
	.cfi_def_cfa_offset 16
	.cfi_offset 6, -16
	movq	%rsp, %rbp
	.cfi_def_cfa_register 6
	subq	$64, %rsp
	movl	%edi, -20(%rbp)
	movq	%rsi, -32(%rbp)
	movq	%rdx, -40(%rbp)
	movl	%ecx, -24(%rbp)
	movq	%r8, -48(%rbp)
	movl	%r9d, -52(%rbp)
	.loc 1 319 16
	movl	24(%rbp), %eax
	andl	$1, %eax
	.loc 1 319 8
	testl	%eax, %eax
	je	.L57
.LBB7:
	.loc 1 321 21
	movl	-24(%rbp), %ecx
	movq	-40(%rbp), %rdx
	movq	-32(%rbp), %rsi
	movl	-20(%rbp), %eax
	movl	%eax, %edi
	call	recv
	movq	%rax, -8(%rbp)
	.loc 1 322 12
	cmpq	$-1, -8(%rbp)
	jne	.L58
	.loc 1 324 24
	movl	16(%rbp), %eax
	andl	$2, %eax
	.loc 1 324 16
	testl	%eax, %eax
	je	.L59
	.loc 1 326 17
	movq	stderr(%rip), %rax
	movl	-52(%rbp), %ecx
	movq	-48(%rbp), %rdx
	movl	$.LC0, %esi
	movq	%rax, %rdi
	movl	$0, %eax
	call	fprintf
	.loc 1 327 83
	call	__errno_location
	.loc 1 327 17
	movl	(%rax), %ecx
	movq	stderr(%rip), %rax
	movl	-20(%rbp), %edx
	movl	$.LC12, %esi
	movq	%rax, %rdi
	movl	$0, %eax
	call	fprintf
	.loc 1 328 17
	movl	$.LC2, %edi
	call	perror
	.loc 1 329 17
	movq	stdout(%rip), %rax
	movq	%rax, %rdi
	call	fflush
.L59:
	.loc 1 331 24
	movl	32(%rbp), %eax
	andl	$2, %eax
	.loc 1 331 16
	testl	%eax, %eax
	je	.L60
	.loc 1 333 28
	movl	16(%rbp), %eax
	andl	$2, %eax
	.loc 1 333 20
	testl	%eax, %eax
	je	.L61
	.loc 1 334 21
	movl	$.LC3, %edi
	movl	$0, %eax
	call	printf
.L61:
	.loc 1 335 24
	movq	$-1, %rax
	jmp	.L62
.L60:
	.loc 1 337 29
	movl	32(%rbp), %eax
	andl	$4, %eax
	.loc 1 337 21
	testl	%eax, %eax
	je	.L63
	.loc 1 339 28
	movl	16(%rbp), %eax
	andl	$2, %eax
	.loc 1 339 20
	testl	%eax, %eax
	je	.L64
	.loc 1 340 21
	movl	$.LC4, %edi
	movl	$0, %eax
	call	printf
.L64:
	.loc 1 341 22
	call	__errno_location
	.loc 1 341 17
	movl	(%rax), %eax
	movl	%eax, %edi
	call	exit
.L63:
	.loc 1 343 29
	movl	32(%rbp), %eax
	andl	$1, %eax
	.loc 1 343 21
	testl	%eax, %eax
	je	.L65
	.loc 1 345 28
	movl	16(%rbp), %eax
	andl	$2, %eax
	.loc 1 345 20
	testl	%eax, %eax
	je	.L66
	.loc 1 346 21
	movl	$.LC5, %edi
	movl	$0, %eax
	call	printf
.L66:
	.loc 1 347 24
	movq	-8(%rbp), %rax
	jmp	.L62
.L65:
	.loc 1 351 17
	movq	stderr(%rip), %rax
	movl	-52(%rbp), %ecx
	movq	-48(%rbp), %rdx
	movl	$.LC0, %esi
	movq	%rax, %rdi
	movl	$0, %eax
	call	fprintf
	.loc 1 352 83
	call	__errno_location
	.loc 1 352 17
	movl	(%rax), %ecx
	movq	stderr(%rip), %rax
	movl	-20(%rbp), %edx
	movl	$.LC12, %esi
	movq	%rax, %rdi
	movl	$0, %eax
	call	fprintf
	.loc 1 353 17
	movl	$.LC6, %edi
	call	perror
	.loc 1 354 17
	movl	$1, %edi
	call	exit
.L58:
	.loc 1 357 16
	movq	-8(%rbp), %rax
	jmp	.L62
.L57:
.LBE7:
	.loc 1 361 9
	movl	$.LC7, %edi
	call	perror
	.loc 1 362 9
	movl	$1, %edi
	call	exit
.L62:
	.loc 1 365 1
	leave
	.cfi_def_cfa 7, 8
	ret
	.cfi_endproc
.LFE11:
	.size	recv_с, .-recv_с
	.section	.rodata
	.align 8
.LC13:
	.string	"from recvfrom_\321\201 socket = %d, errno = %d\n"
	.text
	.globl	recvfrom_c
	.type	recvfrom_c, @function
recvfrom_c:
.LFB12:
	.loc 1 368 1
	.cfi_startproc
	pushq	%rbp
	.cfi_def_cfa_offset 16
	.cfi_offset 6, -16
	movq	%rsp, %rbp
	.cfi_def_cfa_register 6
	subq	$64, %rsp
	movl	%edi, -20(%rbp)
	movq	%rsi, -32(%rbp)
	movq	%rdx, -40(%rbp)
	movl	%ecx, -24(%rbp)
	movq	%r8, -48(%rbp)
	movq	%r9, -56(%rbp)
	.loc 1 371 16
	movl	40(%rbp), %eax
	andl	$1, %eax
	.loc 1 371 8
	testl	%eax, %eax
	je	.L68
.LBB8:
	.loc 1 373 21
	movq	-56(%rbp), %r8
	movq	-48(%rbp), %rdi
	movl	-24(%rbp), %ecx
	movq	-40(%rbp), %rdx
	movq	-32(%rbp), %rsi
	movl	-20(%rbp), %eax
	movq	%r8, %r9
	movq	%rdi, %r8
	movl	%eax, %edi
	call	recvfrom
	movq	%rax, -8(%rbp)
	.loc 1 374 12
	cmpq	$-1, -8(%rbp)
	jne	.L69
	.loc 1 376 24
	movl	32(%rbp), %eax
	andl	$2, %eax
	.loc 1 376 16
	testl	%eax, %eax
	je	.L70
	.loc 1 378 17
	movq	stderr(%rip), %rax
	movl	24(%rbp), %ecx
	movq	16(%rbp), %rdx
	movl	$.LC0, %esi
	movq	%rax, %rdi
	movl	$0, %eax
	call	fprintf
	.loc 1 379 87
	call	__errno_location
	.loc 1 379 17
	movl	(%rax), %ecx
	movq	stderr(%rip), %rax
	movl	-20(%rbp), %edx
	movl	$.LC13, %esi
	movq	%rax, %rdi
	movl	$0, %eax
	call	fprintf
	.loc 1 380 17
	movl	$.LC2, %edi
	call	perror
	.loc 1 381 17
	movq	stdout(%rip), %rax
	movq	%rax, %rdi
	call	fflush
.L70:
	.loc 1 383 24
	movl	48(%rbp), %eax
	andl	$2, %eax
	.loc 1 383 16
	testl	%eax, %eax
	je	.L71
	.loc 1 385 28
	movl	32(%rbp), %eax
	andl	$2, %eax
	.loc 1 385 20
	testl	%eax, %eax
	je	.L72
	.loc 1 386 21
	movl	$.LC3, %edi
	movl	$0, %eax
	call	printf
.L72:
	.loc 1 387 24
	movq	$-1, %rax
	jmp	.L73
.L71:
	.loc 1 389 29
	movl	48(%rbp), %eax
	andl	$4, %eax
	.loc 1 389 21
	testl	%eax, %eax
	je	.L74
	.loc 1 391 28
	movl	32(%rbp), %eax
	andl	$2, %eax
	.loc 1 391 20
	testl	%eax, %eax
	je	.L75
	.loc 1 392 21
	movl	$.LC4, %edi
	movl	$0, %eax
	call	printf
.L75:
	.loc 1 393 22
	call	__errno_location
	.loc 1 393 17
	movl	(%rax), %eax
	movl	%eax, %edi
	call	exit
.L74:
	.loc 1 395 29
	movl	48(%rbp), %eax
	andl	$1, %eax
	.loc 1 395 21
	testl	%eax, %eax
	je	.L76
	.loc 1 397 28
	movl	32(%rbp), %eax
	andl	$2, %eax
	.loc 1 397 20
	testl	%eax, %eax
	je	.L77
	.loc 1 398 21
	movl	$.LC5, %edi
	movl	$0, %eax
	call	printf
.L77:
	.loc 1 399 24
	movq	-8(%rbp), %rax
	jmp	.L73
.L76:
	.loc 1 403 17
	movq	stderr(%rip), %rax
	movl	24(%rbp), %ecx
	movq	16(%rbp), %rdx
	movl	$.LC0, %esi
	movq	%rax, %rdi
	movl	$0, %eax
	call	fprintf
	.loc 1 404 87
	call	__errno_location
	.loc 1 404 17
	movl	(%rax), %ecx
	movq	stderr(%rip), %rax
	movl	-20(%rbp), %edx
	movl	$.LC13, %esi
	movq	%rax, %rdi
	movl	$0, %eax
	call	fprintf
	.loc 1 405 17
	movl	$.LC6, %edi
	call	perror
	.loc 1 406 17
	movl	$1, %edi
	call	exit
.L69:
	.loc 1 409 16
	movq	-8(%rbp), %rax
	jmp	.L73
.L68:
.LBE8:
	.loc 1 413 9
	movl	$.LC7, %edi
	call	perror
	.loc 1 414 9
	movl	$1, %edi
	call	exit
.L73:
	.loc 1 417 1
	leave
	.cfi_def_cfa 7, 8
	ret
	.cfi_endproc
.LFE12:
	.size	recvfrom_c, .-recvfrom_c
	.section	.rodata
	.align 8
.LC14:
	.string	"from send_\321\201 socket = %d, errno = %d\n"
	.text
	.globl	send_с
	.type	send_с, @function
send_с:
.LFB13:
	.loc 1 421 1
	.cfi_startproc
	pushq	%rbp
	.cfi_def_cfa_offset 16
	.cfi_offset 6, -16
	movq	%rsp, %rbp
	.cfi_def_cfa_register 6
	subq	$64, %rsp
	movl	%edi, -20(%rbp)
	movq	%rsi, -32(%rbp)
	movq	%rdx, -40(%rbp)
	movl	%ecx, -24(%rbp)
	movq	%r8, -48(%rbp)
	movl	%r9d, -52(%rbp)
	.loc 1 424 16
	movl	24(%rbp), %eax
	andl	$1, %eax
	.loc 1 424 8
	testl	%eax, %eax
	je	.L79
.LBB9:
	.loc 1 426 21
	movl	-24(%rbp), %ecx
	movq	-40(%rbp), %rdx
	movq	-32(%rbp), %rsi
	movl	-20(%rbp), %eax
	movl	%eax, %edi
	call	send
	movq	%rax, -8(%rbp)
	.loc 1 427 12
	cmpq	$-1, -8(%rbp)
	jne	.L80
	.loc 1 429 24
	movl	16(%rbp), %eax
	andl	$2, %eax
	.loc 1 429 16
	testl	%eax, %eax
	je	.L81
	.loc 1 431 17
	movq	stderr(%rip), %rax
	movl	-52(%rbp), %ecx
	movq	-48(%rbp), %rdx
	movl	$.LC0, %esi
	movq	%rax, %rdi
	movl	$0, %eax
	call	fprintf
	.loc 1 432 83
	call	__errno_location
	.loc 1 432 17
	movl	(%rax), %ecx
	movq	stderr(%rip), %rax
	movl	-20(%rbp), %edx
	movl	$.LC14, %esi
	movq	%rax, %rdi
	movl	$0, %eax
	call	fprintf
	.loc 1 433 17
	movl	$.LC2, %edi
	call	perror
	.loc 1 434 17
	movq	stdout(%rip), %rax
	movq	%rax, %rdi
	call	fflush
.L81:
	.loc 1 436 24
	movl	32(%rbp), %eax
	andl	$2, %eax
	.loc 1 436 16
	testl	%eax, %eax
	je	.L82
	.loc 1 438 28
	movl	16(%rbp), %eax
	andl	$2, %eax
	.loc 1 438 20
	testl	%eax, %eax
	je	.L83
	.loc 1 439 21
	movl	$.LC3, %edi
	movl	$0, %eax
	call	printf
.L83:
	.loc 1 440 24
	movq	$-1, %rax
	jmp	.L84
.L82:
	.loc 1 442 29
	movl	32(%rbp), %eax
	andl	$4, %eax
	.loc 1 442 21
	testl	%eax, %eax
	je	.L85
	.loc 1 444 28
	movl	16(%rbp), %eax
	andl	$2, %eax
	.loc 1 444 20
	testl	%eax, %eax
	je	.L86
	.loc 1 445 21
	movl	$.LC4, %edi
	movl	$0, %eax
	call	printf
.L86:
	.loc 1 446 22
	call	__errno_location
	.loc 1 446 17
	movl	(%rax), %eax
	movl	%eax, %edi
	call	exit
.L85:
	.loc 1 448 29
	movl	32(%rbp), %eax
	andl	$1, %eax
	.loc 1 448 21
	testl	%eax, %eax
	je	.L87
	.loc 1 450 28
	movl	16(%rbp), %eax
	andl	$2, %eax
	.loc 1 450 20
	testl	%eax, %eax
	je	.L88
	.loc 1 451 21
	movl	$.LC5, %edi
	movl	$0, %eax
	call	printf
.L88:
	.loc 1 452 24
	movq	-8(%rbp), %rax
	jmp	.L84
.L87:
	.loc 1 456 17
	movq	stderr(%rip), %rax
	movl	-52(%rbp), %ecx
	movq	-48(%rbp), %rdx
	movl	$.LC0, %esi
	movq	%rax, %rdi
	movl	$0, %eax
	call	fprintf
	.loc 1 457 83
	call	__errno_location
	.loc 1 457 17
	movl	(%rax), %ecx
	movq	stderr(%rip), %rax
	movl	-20(%rbp), %edx
	movl	$.LC14, %esi
	movq	%rax, %rdi
	movl	$0, %eax
	call	fprintf
	.loc 1 458 17
	movl	$.LC6, %edi
	call	perror
	.loc 1 459 17
	movl	$1, %edi
	call	exit
.L80:
	.loc 1 462 16
	movq	-8(%rbp), %rax
	jmp	.L84
.L79:
.LBE9:
	.loc 1 466 9
	movl	$.LC7, %edi
	call	perror
	.loc 1 467 9
	movl	$1, %edi
	call	exit
.L84:
	.loc 1 470 1
	leave
	.cfi_def_cfa 7, 8
	ret
	.cfi_endproc
.LFE13:
	.size	send_с, .-send_с
	.section	.rodata
	.align 8
.LC15:
	.string	"from sendto_\321\201 socket = %d, errno = %d\n"
	.text
	.globl	sendto_с
	.type	sendto_с, @function
sendto_с:
.LFB14:
	.loc 1 474 1
	.cfi_startproc
	pushq	%rbp
	.cfi_def_cfa_offset 16
	.cfi_offset 6, -16
	movq	%rsp, %rbp
	.cfi_def_cfa_register 6
	subq	$64, %rsp
	movl	%edi, -20(%rbp)
	movq	%rsi, -32(%rbp)
	movq	%rdx, -40(%rbp)
	movl	%ecx, -24(%rbp)
	movq	%r8, -48(%rbp)
	movl	%r9d, -52(%rbp)
	.loc 1 477 16
	movl	40(%rbp), %eax
	andl	$1, %eax
	.loc 1 477 8
	testl	%eax, %eax
	je	.L90
.LBB10:
	.loc 1 479 21
	movl	-52(%rbp), %r8d
	movq	-48(%rbp), %rdi
	movl	-24(%rbp), %ecx
	movq	-40(%rbp), %rdx
	movq	-32(%rbp), %rsi
	movl	-20(%rbp), %eax
	movl	%r8d, %r9d
	movq	%rdi, %r8
	movl	%eax, %edi
	call	sendto
	movq	%rax, -8(%rbp)
	.loc 1 480 12
	cmpq	$-1, -8(%rbp)
	jne	.L91
	.loc 1 482 24
	movl	32(%rbp), %eax
	andl	$2, %eax
	.loc 1 482 16
	testl	%eax, %eax
	je	.L92
	.loc 1 484 17
	movq	stderr(%rip), %rax
	movl	24(%rbp), %ecx
	movq	16(%rbp), %rdx
	movl	$.LC0, %esi
	movq	%rax, %rdi
	movl	$0, %eax
	call	fprintf
	.loc 1 485 85
	call	__errno_location
	.loc 1 485 17
	movl	(%rax), %ecx
	movq	stderr(%rip), %rax
	movl	-20(%rbp), %edx
	movl	$.LC15, %esi
	movq	%rax, %rdi
	movl	$0, %eax
	call	fprintf
	.loc 1 486 17
	movl	$.LC2, %edi
	call	perror
	.loc 1 487 17
	movq	stdout(%rip), %rax
	movq	%rax, %rdi
	call	fflush
.L92:
	.loc 1 489 24
	movl	48(%rbp), %eax
	andl	$2, %eax
	.loc 1 489 16
	testl	%eax, %eax
	je	.L93
	.loc 1 491 28
	movl	32(%rbp), %eax
	andl	$2, %eax
	.loc 1 491 20
	testl	%eax, %eax
	je	.L94
	.loc 1 492 21
	movl	$.LC3, %edi
	movl	$0, %eax
	call	printf
.L94:
	.loc 1 493 24
	movq	$-1, %rax
	jmp	.L95
.L93:
	.loc 1 495 29
	movl	48(%rbp), %eax
	andl	$4, %eax
	.loc 1 495 21
	testl	%eax, %eax
	je	.L96
	.loc 1 497 28
	movl	32(%rbp), %eax
	andl	$2, %eax
	.loc 1 497 20
	testl	%eax, %eax
	je	.L97
	.loc 1 498 21
	movl	$.LC4, %edi
	movl	$0, %eax
	call	printf
.L97:
	.loc 1 499 22
	call	__errno_location
	.loc 1 499 17
	movl	(%rax), %eax
	movl	%eax, %edi
	call	exit
.L96:
	.loc 1 501 29
	movl	48(%rbp), %eax
	andl	$1, %eax
	.loc 1 501 21
	testl	%eax, %eax
	je	.L98
	.loc 1 503 28
	movl	32(%rbp), %eax
	andl	$2, %eax
	.loc 1 503 20
	testl	%eax, %eax
	je	.L99
	.loc 1 504 21
	movl	$.LC5, %edi
	movl	$0, %eax
	call	printf
.L99:
	.loc 1 505 24
	movq	-8(%rbp), %rax
	jmp	.L95
.L98:
	.loc 1 509 17
	movq	stderr(%rip), %rax
	movl	24(%rbp), %ecx
	movq	16(%rbp), %rdx
	movl	$.LC0, %esi
	movq	%rax, %rdi
	movl	$0, %eax
	call	fprintf
	.loc 1 510 85
	call	__errno_location
	.loc 1 510 17
	movl	(%rax), %ecx
	movq	stderr(%rip), %rax
	movl	-20(%rbp), %edx
	movl	$.LC15, %esi
	movq	%rax, %rdi
	movl	$0, %eax
	call	fprintf
	.loc 1 511 17
	movl	$.LC6, %edi
	call	perror
	.loc 1 512 17
	movl	$1, %edi
	call	exit
.L91:
	.loc 1 515 16
	movq	-8(%rbp), %rax
	jmp	.L95
.L90:
.LBE10:
	.loc 1 519 9
	movl	$.LC7, %edi
	call	perror
	.loc 1 520 9
	movl	$1, %edi
	call	exit
.L95:
	.loc 1 523 1
	leave
	.cfi_def_cfa 7, 8
	ret
	.cfi_endproc
.LFE14:
	.size	sendto_с, .-sendto_с
	.section	.rodata
	.align 8
.LC16:
	.string	"from socket_\321\201 domain = %d, type = %d, protocol = %d, errno = %d\n"
	.text
	.globl	socket_с
	.type	socket_с, @function
socket_с:
.LFB15:
	.loc 1 529 1
	.cfi_startproc
	pushq	%rbp
	.cfi_def_cfa_offset 16
	.cfi_offset 6, -16
	movq	%rsp, %rbp
	.cfi_def_cfa_register 6
	subq	$48, %rsp
	movl	%edi, -20(%rbp)
	movl	%esi, -24(%rbp)
	movl	%edx, -28(%rbp)
	movq	%rcx, -40(%rbp)
	movl	%r8d, -32(%rbp)
	movl	%r9d, -44(%rbp)
	.loc 1 531 16
	movl	16(%rbp), %eax
	andl	$1, %eax
	.loc 1 531 8
	testl	%eax, %eax
	je	.L101
.LBB11:
	.loc 1 533 17
	movl	-28(%rbp), %edx
	movl	-24(%rbp), %ecx
	movl	-20(%rbp), %eax
	movl	%ecx, %esi
	movl	%eax, %edi
	call	socket
	movl	%eax, -4(%rbp)
	.loc 1 534 12
	cmpl	$-1, -4(%rbp)
	jne	.L102
	.loc 1 536 24
	movl	-44(%rbp), %eax
	andl	$2, %eax
	.loc 1 536 16
	testl	%eax, %eax
	je	.L103
	.loc 1 538 17
	movq	stderr(%rip), %rax
	movl	-32(%rbp), %ecx
	movq	-40(%rbp), %rdx
	movl	$.LC0, %esi
	movq	%rax, %rdi
	movl	$0, %eax
	call	fprintf
	.loc 1 539 127
	call	__errno_location
	.loc 1 539 17
	movl	(%rax), %edi
	movq	stderr(%rip), %rax
	movl	-28(%rbp), %esi
	movl	-24(%rbp), %ecx
	movl	-20(%rbp), %edx
	movl	%edi, %r9d
	movl	%esi, %r8d
	movl	$.LC16, %esi
	movq	%rax, %rdi
	movl	$0, %eax
	call	fprintf
	.loc 1 540 17
	movl	$.LC2, %edi
	call	perror
	.loc 1 541 17
	movq	stdout(%rip), %rax
	movq	%rax, %rdi
	call	fflush
.L103:
	.loc 1 543 24
	movl	24(%rbp), %eax
	andl	$2, %eax
	.loc 1 543 16
	testl	%eax, %eax
	je	.L104
	.loc 1 545 28
	movl	-44(%rbp), %eax
	andl	$2, %eax
	.loc 1 545 20
	testl	%eax, %eax
	je	.L105
	.loc 1 546 21
	movl	$.LC3, %edi
	movl	$0, %eax
	call	printf
.L105:
	.loc 1 547 24
	movl	$-1, %eax
	jmp	.L106
.L104:
	.loc 1 549 29
	movl	24(%rbp), %eax
	andl	$4, %eax
	.loc 1 549 21
	testl	%eax, %eax
	je	.L107
	.loc 1 551 28
	movl	-44(%rbp), %eax
	andl	$2, %eax
	.loc 1 551 20
	testl	%eax, %eax
	je	.L108
	.loc 1 552 21
	movl	$.LC4, %edi
	movl	$0, %eax
	call	printf
.L108:
	.loc 1 553 22
	call	__errno_location
	.loc 1 553 17
	movl	(%rax), %eax
	movl	%eax, %edi
	call	exit
.L107:
	.loc 1 555 29
	movl	24(%rbp), %eax
	andl	$1, %eax
	.loc 1 555 21
	testl	%eax, %eax
	je	.L109
	.loc 1 557 28
	movl	-44(%rbp), %eax
	andl	$2, %eax
	.loc 1 557 20
	testl	%eax, %eax
	je	.L110
	.loc 1 558 21
	movl	$.LC5, %edi
	movl	$0, %eax
	call	printf
.L110:
	.loc 1 559 24
	movl	-4(%rbp), %eax
	jmp	.L106
.L109:
	.loc 1 563 17
	movq	stderr(%rip), %rax
	movl	-32(%rbp), %ecx
	movq	-40(%rbp), %rdx
	movl	$.LC0, %esi
	movq	%rax, %rdi
	movl	$0, %eax
	call	fprintf
	.loc 1 564 127
	call	__errno_location
	.loc 1 564 17
	movl	(%rax), %edi
	movq	stderr(%rip), %rax
	movl	-28(%rbp), %esi
	movl	-24(%rbp), %ecx
	movl	-20(%rbp), %edx
	movl	%edi, %r9d
	movl	%esi, %r8d
	movl	$.LC16, %esi
	movq	%rax, %rdi
	movl	$0, %eax
	call	fprintf
	.loc 1 565 17
	movl	$.LC6, %edi
	call	perror
	.loc 1 566 17
	movl	$1, %edi
	call	exit
.L102:
	.loc 1 589 16
	movl	-4(%rbp), %eax
	jmp	.L106
.L101:
.LBE11:
	.loc 1 593 9
	movl	$.LC7, %edi
	call	perror
	.loc 1 594 9
	movl	$1, %edi
	call	exit
.L106:
	.loc 1 597 1
	leave
	.cfi_def_cfa 7, 8
	ret
	.cfi_endproc
.LFE15:
	.size	socket_с, .-socket_с
.Letext0:
	.file 2 "/usr/include/bits/types.h"
	.file 3 "/usr/lib/gcc/x86_64-redhat-linux/12/include/stddef.h"
	.file 4 "/usr/include/bits/types/struct_FILE.h"
	.file 5 "/usr/include/bits/types/FILE.h"
	.file 6 "/usr/include/stdio.h"
	.file 7 "/usr/include/bits/socket.h"
	.file 8 "/usr/include/bits/sockaddr.h"
	.file 9 "/usr/include/sys/socket.h"
	.file 10 "/usr/include/stdlib.h"
	.file 11 "/usr/include/errno.h"
	.section	.note.GNU-stack,"",@progbits
