	.file	"lc_0.c"
	.text
.Ltext0:
	.file 0 "/home/st/start/communis/Deploy_store/.qa/main_repo_fn/dir_c_/_c_/_man/nbase/_Head_sis_libs_v.cplus/17_stdio_h/1_functions/1_clearerr/clearerr_cpjs" "lib/lc_0.c"
	.globl	fill_rand_lc_0_MxV_Ac_Ar
	.type	fill_rand_lc_0_MxV_Ac_Ar, @function
fill_rand_lc_0_MxV_Ac_Ar:
.LVL0:
.LFB6:
	.file 1 "lib/lc_0.c"
	.loc 1 21 1 view -0
	.cfi_startproc
	.loc 1 22 5 view .LVU1
	.loc 1 24 5 view .LVU2
	.loc 1 21 1 is_stmt 0 view .LVU3
	pushq	%r13
	.cfi_def_cfa_offset 16
	.cfi_offset 13, -16
	movq	%rdx, %r13
	pushq	%r12
	.cfi_def_cfa_offset 24
	.cfi_offset 12, -24
	movl	%esi, %r12d
	pushq	%rbp
	.cfi_def_cfa_offset 32
	.cfi_offset 6, -32
	movl	%edi, %ebp
	.loc 1 24 11 view .LVU4
	xorl	%edi, %edi
.LVL1:
	.loc 1 21 1 view .LVU5
	pushq	%rbx
	.cfi_def_cfa_offset 40
	.cfi_offset 3, -40
.LBB2:
	.loc 1 25 5 view .LVU6
	xorl	%ebx, %ebx
.LBE2:
	.loc 1 21 1 view .LVU7
	pushq	%rcx
	.cfi_def_cfa_offset 48
	.loc 1 24 11 view .LVU8
	call	time
.LVL2:
	.loc 1 24 5 view .LVU9
	movl	%eax, %edi
	call	srand
.LVL3:
	.loc 1 25 5 is_stmt 1 view .LVU10
.LBB3:
	.loc 1 25 10 view .LVU11
.L2:
	.loc 1 25 23 discriminator 1 view .LVU12
	cmpl	%ebx, %r12d
	jle	.L6
	.loc 1 27 9 discriminator 3 view .LVU13
	.loc 1 27 18 is_stmt 0 discriminator 3 view .LVU14
	call	rand
.LVL4:
	.loc 1 27 25 discriminator 3 view .LVU15
	cltd
	idivl	%ebp
	.loc 1 27 16 discriminator 3 view .LVU16
	movl	%edx, 0(%r13,%rbx,4)
	.loc 1 25 32 is_stmt 1 discriminator 3 view .LVU17
.LVL5:
	.loc 1 25 32 is_stmt 0 discriminator 3 view .LVU18
	incq	%rbx
.LVL6:
	.loc 1 25 32 discriminator 3 view .LVU19
	jmp	.L2
.LVL7:
.L6:
	.loc 1 25 32 discriminator 3 view .LVU20
.LBE3:
	.loc 1 29 1 view .LVU21
	popq	%rax
	.cfi_def_cfa_offset 40
	popq	%rbx
	.cfi_def_cfa_offset 32
.LVL8:
	.loc 1 29 1 view .LVU22
	popq	%rbp
	.cfi_def_cfa_offset 24
.LVL9:
	.loc 1 29 1 view .LVU23
	popq	%r12
	.cfi_def_cfa_offset 16
.LVL10:
	.loc 1 29 1 view .LVU24
	popq	%r13
	.cfi_def_cfa_offset 8
.LVL11:
	.loc 1 29 1 view .LVU25
	ret
	.cfi_endproc
.LFE6:
	.size	fill_rand_lc_0_MxV_Ac_Ar, .-fill_rand_lc_0_MxV_Ac_Ar
	.section	.rodata.str1.1,"aMS",@progbits,1
.LC0:
	.string	"%4d"
	.text
	.globl	pr_int_arr_lc_0_Ac_Ar
	.type	pr_int_arr_lc_0_Ac_Ar, @function
pr_int_arr_lc_0_Ac_Ar:
.LVL12:
.LFB7:
	.loc 1 32 1 is_stmt 1 view -0
	.cfi_startproc
	.loc 1 33 5 view .LVU27
	.loc 1 35 5 view .LVU28
.LBB4:
	.loc 1 35 10 view .LVU29
	.loc 1 35 10 is_stmt 0 view .LVU30
.LBE4:
	.loc 1 32 1 view .LVU31
	pushq	%r12
	.cfi_def_cfa_offset 16
	.cfi_offset 12, -16
	movq	%rsi, %r12
	pushq	%rbp
	.cfi_def_cfa_offset 24
	.cfi_offset 6, -24
	movl	%edi, %ebp
	pushq	%rbx
	.cfi_def_cfa_offset 32
	.cfi_offset 3, -32
.LBB5:
	.loc 1 35 5 view .LVU32
	xorl	%ebx, %ebx
.LVL13:
.L8:
	.loc 1 35 23 is_stmt 1 discriminator 1 view .LVU33
	cmpl	%ebx, %ebp
	jle	.L11
	.loc 1 37 9 discriminator 3 view .LVU34
	movl	(%r12,%rbx,4), %esi
	movl	$.LC0, %edi
	xorl	%eax, %eax
	incq	%rbx
.LVL14:
	.loc 1 37 9 is_stmt 0 discriminator 3 view .LVU35
	call	printf
.LVL15:
	.loc 1 35 32 is_stmt 1 discriminator 3 view .LVU36
	.loc 1 35 32 is_stmt 0 discriminator 3 view .LVU37
	jmp	.L8
.LVL16:
.L11:
	.loc 1 35 32 discriminator 3 view .LVU38
.LBE5:
	.loc 1 39 5 is_stmt 1 view .LVU39
	.loc 1 40 1 is_stmt 0 view .LVU40
	popq	%rbx
	.cfi_def_cfa_offset 24
.LVL17:
	.loc 1 39 5 view .LVU41
	movl	$10, %edi
	.loc 1 40 1 view .LVU42
	popq	%rbp
	.cfi_def_cfa_offset 16
.LVL18:
	.loc 1 40 1 view .LVU43
	popq	%r12
	.cfi_def_cfa_offset 8
.LVL19:
	.loc 1 39 5 view .LVU44
	jmp	putchar
.LVL20:
	.cfi_endproc
.LFE7:
	.size	pr_int_arr_lc_0_Ac_Ar, .-pr_int_arr_lc_0_Ac_Ar
	.section	.rodata.str1.1
.LC1:
	.string	"divisor = %d\n"
	.text
	.globl	is_prime_lc_0_Chint
	.type	is_prime_lc_0_Chint, @function
is_prime_lc_0_Chint:
.LVL21:
.LFB8:
	.loc 1 43 1 is_stmt 1 view -0
	.cfi_startproc
	.loc 1 44 5 view .LVU46
.LBB6:
	.loc 1 44 10 view .LVU47
	.loc 1 44 10 is_stmt 0 view .LVU48
.LBE6:
	.loc 1 43 1 view .LVU49
	pushq	%rbx
	.cfi_def_cfa_offset 16
	.cfi_offset 3, -16
.LBB7:
	.loc 1 44 14 view .LVU50
	movl	$2, %esi
.LVL22:
.L13:
	.loc 1 45 28 is_stmt 1 view .LVU51
	.loc 1 45 18 is_stmt 0 view .LVU52
	movl	%esi, %eax
	imull	%esi, %eax
	.loc 1 45 28 view .LVU53
	cmpl	%edi, %eax
	jg	.L18
	.loc 1 48 9 is_stmt 1 view .LVU54
	.loc 1 48 20 is_stmt 0 view .LVU55
	movl	%edi, %eax
	cltd
	idivl	%esi
	movl	%edx, %ebx
	.loc 1 48 12 view .LVU56
	testl	%edx, %edx
	jne	.L14
	.loc 1 50 13 is_stmt 1 view .LVU57
	movl	$.LC1, %edi
.LVL23:
	.loc 1 50 13 is_stmt 0 view .LVU58
	xorl	%eax, %eax
	call	printf
.LVL24:
	.loc 1 51 13 is_stmt 1 view .LVU59
	.loc 1 51 20 is_stmt 0 view .LVU60
	jmp	.L12
.LVL25:
.L14:
	.loc 1 46 10 is_stmt 1 view .LVU61
	incl	%esi
.LVL26:
	.loc 1 46 10 is_stmt 0 view .LVU62
	jmp	.L13
.L18:
	.loc 1 46 10 view .LVU63
.LBE7:
	.loc 1 54 12 view .LVU64
	movl	$1, %ebx
.LVL27:
.L12:
	.loc 1 55 1 view .LVU65
	movl	%ebx, %eax
	popq	%rbx
	.cfi_def_cfa_offset 8
	ret
	.cfi_endproc
.LFE8:
	.size	is_prime_lc_0_Chint, .-is_prime_lc_0_Chint
	.globl	insert_sort_up_lc_0_AcMxV_Ar
	.type	insert_sort_up_lc_0_AcMxV_Ar, @function
insert_sort_up_lc_0_AcMxV_Ar:
.LVL28:
.LFB9:
	.loc 1 58 1 is_stmt 1 view -0
	.cfi_startproc
	.loc 1 59 5 view .LVU67
.LBB8:
	.loc 1 59 10 view .LVU68
	.loc 1 59 17 is_stmt 0 view .LVU69
	movl	$1, %edx
	.loc 1 59 26 view .LVU70
	movslq	%edi, %rdi
.LVL29:
.L20:
	.loc 1 59 26 is_stmt 1 discriminator 1 view .LVU71
	cmpq	%rdi, %rdx
	jnb	.L25
.LBB9:
	.loc 1 61 9 view .LVU72
.LVL30:
	.loc 1 62 9 view .LVU73
	movslq	%edx, %rax
.LVL31:
.L21:
	.loc 1 62 22 view .LVU74
	testl	%eax, %eax
	jle	.L22
	.loc 1 62 27 is_stmt 0 discriminator 1 view .LVU75
	movl	-4(%rsi,%rax,4), %r8d
	.loc 1 62 22 discriminator 1 view .LVU76
	decq	%rax
.LVL32:
	.loc 1 62 38 discriminator 1 view .LVU77
	movl	4(%rsi,%rax,4), %ecx
	.loc 1 62 22 discriminator 1 view .LVU78
	cmpl	%ecx, %r8d
	jle	.L22
.LBB10:
	.loc 1 64 13 is_stmt 1 view .LVU79
.LVL33:
	.loc 1 65 13 view .LVU80
	.loc 1 65 22 is_stmt 0 view .LVU81
	movl	%ecx, (%rsi,%rax,4)
	.loc 1 66 13 is_stmt 1 view .LVU82
	.loc 1 66 18 is_stmt 0 view .LVU83
	movl	%r8d, 4(%rsi,%rax,4)
	.loc 1 68 13 is_stmt 1 view .LVU84
.LVL34:
	.loc 1 68 13 is_stmt 0 view .LVU85
	jmp	.L21
.LVL35:
.L22:
	.loc 1 68 13 view .LVU86
.LBE10:
.LBE9:
	.loc 1 59 32 is_stmt 1 discriminator 2 view .LVU87
	incq	%rdx
.LVL36:
	.loc 1 59 32 is_stmt 0 discriminator 2 view .LVU88
	jmp	.L20
.LVL37:
.L25:
	.loc 1 59 32 discriminator 2 view .LVU89
.LBE8:
	.loc 1 71 1 view .LVU90
	ret
	.cfi_endproc
.LFE9:
	.size	insert_sort_up_lc_0_AcMxV_Ar, .-insert_sort_up_lc_0_AcMxV_Ar
	.globl	insert_sort_down_lc_0_AcMxV_Ar
	.type	insert_sort_down_lc_0_AcMxV_Ar, @function
insert_sort_down_lc_0_AcMxV_Ar:
.LVL38:
.LFB10:
	.loc 1 74 1 is_stmt 1 view -0
	.cfi_startproc
	.loc 1 75 5 view .LVU92
.LBB11:
	.loc 1 75 10 view .LVU93
	.loc 1 75 23 is_stmt 0 view .LVU94
	leal	-1(%rdi), %edx
	.loc 1 75 17 view .LVU95
	movslq	%edx, %rcx
.LVL39:
.L27:
	.loc 1 75 30 is_stmt 1 discriminator 1 view .LVU96
	testq	%rcx, %rcx
	je	.L32
.LBB12:
	.loc 1 77 9 view .LVU97
.LVL40:
	.loc 1 78 9 view .LVU98
	movslq	%edx, %rax
.LVL41:
.L28:
	.loc 1 78 22 view .LVU99
	cmpl	%eax, %edi
	jle	.L29
	.loc 1 78 27 is_stmt 0 discriminator 1 view .LVU100
	movl	-4(%rsi,%rax,4), %r9d
	.loc 1 78 38 discriminator 1 view .LVU101
	movl	(%rsi,%rax,4), %r8d
	.loc 1 78 22 discriminator 1 view .LVU102
	cmpl	%r8d, %r9d
	jge	.L29
.LBB13:
	.loc 1 81 13 is_stmt 1 view .LVU103
.LVL42:
	.loc 1 82 13 view .LVU104
	.loc 1 82 18 is_stmt 0 view .LVU105
	movl	%r9d, (%rsi,%rax,4)
	.loc 1 83 13 is_stmt 1 view .LVU106
	.loc 1 83 22 is_stmt 0 view .LVU107
	movl	%r8d, -4(%rsi,%rax,4)
	.loc 1 85 13 is_stmt 1 view .LVU108
.LVL43:
	.loc 1 85 13 is_stmt 0 view .LVU109
	incq	%rax
.LVL44:
	.loc 1 85 13 view .LVU110
	jmp	.L28
.LVL45:
.L29:
	.loc 1 85 13 view .LVU111
.LBE13:
.LBE12:
	.loc 1 75 36 is_stmt 1 discriminator 2 view .LVU112
	decq	%rcx
.LVL46:
	.loc 1 75 36 is_stmt 0 discriminator 2 view .LVU113
	decl	%edx
	jmp	.L27
.LVL47:
.L32:
	.loc 1 75 36 discriminator 2 view .LVU114
.LBE11:
	.loc 1 88 1 view .LVU115
	ret
	.cfi_endproc
.LFE10:
	.size	insert_sort_down_lc_0_AcMxV_Ar, .-insert_sort_down_lc_0_AcMxV_Ar
	.globl	gcd_lc_0_int_int
	.type	gcd_lc_0_int_int, @function
gcd_lc_0_int_int:
.LVL48:
.LFB11:
	.loc 1 92 1 is_stmt 1 view -0
	.cfi_startproc
	.loc 1 92 1 is_stmt 0 view .LVU117
	movl	%edi, %eax
.LVL49:
.L35:
	.loc 1 93 5 is_stmt 1 view .LVU118
	.loc 1 93 8 is_stmt 0 view .LVU119
	testl	%esi, %esi
	je	.L36
	.loc 1 95 5 is_stmt 1 view .LVU120
	.loc 1 95 9 is_stmt 0 view .LVU121
	cltd
	idivl	%esi
.LVL50:
	.loc 1 96 5 is_stmt 1 view .LVU122
	.loc 1 96 12 is_stmt 0 view .LVU123
	movl	%esi, %eax
	movl	%edx, %esi
	jmp	.L35
.LVL51:
.L36:
	.loc 1 97 1 view .LVU124
	ret
	.cfi_endproc
.LFE11:
	.size	gcd_lc_0_int_int, .-gcd_lc_0_int_int
	.globl	factorial_lc_0_int
	.type	factorial_lc_0_int, @function
factorial_lc_0_int:
.LVL52:
.LFB12:
	.loc 1 100 1 is_stmt 1 view -0
	.cfi_startproc
	.loc 1 100 1 is_stmt 0 view .LVU126
	movl	$1, %eax
.LVL53:
.L39:
	.loc 1 101 5 is_stmt 1 view .LVU127
	.loc 1 101 8 is_stmt 0 view .LVU128
	testl	%edi, %edi
	je	.L40
	.loc 1 103 5 is_stmt 1 view .LVU129
	imull	%edi, %eax
	.loc 1 103 20 is_stmt 0 view .LVU130
	decl	%edi
	.loc 1 104 12 view .LVU131
	jmp	.L39
.L40:
	.loc 1 105 1 view .LVU132
	ret
	.cfi_endproc
.LFE12:
	.size	factorial_lc_0_int, .-factorial_lc_0_int
	.globl	fib_lc_0_int
	.type	fib_lc_0_int, @function
fib_lc_0_int:
.LVL54:
.LFB13:
	.loc 1 108 1 is_stmt 1 view -0
	.cfi_startproc
	.loc 1 108 1 is_stmt 0 view .LVU134
	pushq	%rbp
	.cfi_def_cfa_offset 16
	.cfi_offset 6, -16
	xorl	%ebp, %ebp
	pushq	%rbx
	.cfi_def_cfa_offset 24
	.cfi_offset 3, -24
	movl	%edi, %ebx
	pushq	%rcx
	.cfi_def_cfa_offset 32
.LVL55:
.L43:
	.loc 1 109 5 is_stmt 1 view .LVU135
	.loc 1 109 8 is_stmt 0 view .LVU136
	cmpl	$1, %ebx
	jle	.L45
	.loc 1 111 5 is_stmt 1 view .LVU137
	.loc 1 111 16 is_stmt 0 view .LVU138
	leal	-1(%rbx), %edi
	.loc 1 111 38 view .LVU139
	subl	$2, %ebx
	.loc 1 111 16 view .LVU140
	call	fib_lc_0_int
.LVL56:
	addl	%eax, %ebp
	.loc 1 112 12 view .LVU141
	jmp	.L43
.L45:
	.loc 1 110 9 is_stmt 1 view .LVU142
	.loc 1 113 1 is_stmt 0 view .LVU143
	leal	(%rbx,%rbp), %eax
	popq	%rdx
	.cfi_def_cfa_offset 24
	popq	%rbx
	.cfi_def_cfa_offset 16
	popq	%rbp
	.cfi_def_cfa_offset 8
	ret
	.cfi_endproc
.LFE13:
	.size	fib_lc_0_int, .-fib_lc_0_int
	.section	.rodata.str1.1
.LC2:
	.string	"n = %d : from %d to %d\n"
	.text
	.globl	hanoi_lc_0_hight_from_to
	.type	hanoi_lc_0_hight_from_to, @function
hanoi_lc_0_hight_from_to:
.LVL57:
.LFB14:
	.loc 1 116 1 is_stmt 1 view -0
	.cfi_startproc
	.loc 1 116 1 is_stmt 0 view .LVU145
	pushq	%r14
	.cfi_def_cfa_offset 16
	.cfi_offset 14, -16
	pushq	%r13
	.cfi_def_cfa_offset 24
	.cfi_offset 13, -24
	movl	%edx, %r13d
	pushq	%r12
	.cfi_def_cfa_offset 32
	.cfi_offset 12, -32
	pushq	%rbp
	.cfi_def_cfa_offset 40
	.cfi_offset 6, -40
	movl	%edi, %ebp
	pushq	%rbx
	.cfi_def_cfa_offset 48
	.cfi_offset 3, -48
	movl	%esi, %ebx
.LVL58:
.L49:
	.loc 1 118 5 is_stmt 1 view .LVU146
	.loc 1 118 8 is_stmt 0 view .LVU147
	cmpl	$1, %ebp
	jne	.L48
	.loc 1 119 9 is_stmt 1 view .LVU148
	movl	%r13d, %ecx
	movl	%ebx, %edx
	movl	$1, %esi
	.loc 1 127 1 is_stmt 0 view .LVU149
	popq	%rbx
	.cfi_remember_state
	.cfi_def_cfa_offset 40
	.loc 1 119 9 view .LVU150
	movl	$.LC2, %edi
	.loc 1 127 1 view .LVU151
	popq	%rbp
	.cfi_def_cfa_offset 32
	.loc 1 119 9 view .LVU152
	xorl	%eax, %eax
	.loc 1 127 1 view .LVU153
	popq	%r12
	.cfi_def_cfa_offset 24
	popq	%r13
	.cfi_def_cfa_offset 16
.LVL59:
	.loc 1 127 1 view .LVU154
	popq	%r14
	.cfi_def_cfa_offset 8
	.loc 1 119 9 view .LVU155
	jmp	printf
.LVL60:
.L48:
	.cfi_restore_state
.LBB14:
	.loc 1 122 9 is_stmt 1 view .LVU156
	.loc 1 122 21 is_stmt 0 view .LVU157
	movl	$6, %r12d
	.loc 1 123 9 view .LVU158
	leal	-1(%rbp), %r14d
	movl	%ebx, %esi
	.loc 1 122 21 view .LVU159
	subl	%ebx, %r12d
	.loc 1 123 9 view .LVU160
	movl	%r14d, %edi
	.loc 1 122 13 view .LVU161
	subl	%r13d, %r12d
.LVL61:
	.loc 1 123 9 is_stmt 1 view .LVU162
	movl	%r12d, %edx
	call	hanoi_lc_0_hight_from_to
.LVL62:
	.loc 1 124 9 view .LVU163
	movl	%ebx, %edx
	movl	%ebp, %esi
	movl	%r13d, %ecx
	movl	$.LC2, %edi
	xorl	%eax, %eax
	.loc 1 125 9 is_stmt 0 view .LVU164
	movl	%r12d, %ebx
	movl	%r14d, %ebp
	.loc 1 124 9 view .LVU165
	call	printf
.LVL63:
	.loc 1 125 9 is_stmt 1 view .LVU166
	jmp	.L49
.LBE14:
	.cfi_endproc
.LFE14:
	.size	hanoi_lc_0_hight_from_to, .-hanoi_lc_0_hight_from_to
.Letext0:
	.file 2 "/usr/lib/gcc/x86_64-redhat-linux/12/include/stddef.h"
	.file 3 "/usr/include/bits/types.h"
	.file 4 "/usr/include/bits/types/time_t.h"
	.file 5 "/usr/include/stdio.h"
	.file 6 "/usr/include/time.h"
	.file 7 "/usr/include/stdlib.h"
	.file 8 "<built-in>"
	.section	.note.GNU-stack,"",@progbits
