	.file	"3p_1.c"
	.text
.Ltext0:
	.file 0 "/home/st/start/communis/Deploy_store/.qa/main_repo_fn/dir_c_/_c_/_man/nbase/_Head_sis_libs_v.cplus/17_stdio_h/1_functions/1_clearerr/clearerr_cpjs" "lib/3p_1.c"
	.section	.rodata.str1.1,"aMS",@progbits,1
.LC0:
	.string	"failed in file %s at line # %d\n"
.LC1:
	.string	"from fileno_c errno = %d\n"
.LC2:
	.string	"exit(errno) with"
	.text
	.globl	fileno_c
	.type	fileno_c, @function
fileno_c:
.LVL0:
.LFB6:
	.file 1 "lib/3p_1.c"
	.loc 1 29 1 view -0
	.cfi_startproc
	.loc 1 30 5 view .LVU1
	.loc 1 29 1 is_stmt 0 view .LVU2
	pushq	%rbp
	.cfi_def_cfa_offset 16
	.cfi_offset 6, -16
	movl	%edx, %ebp
	pushq	%rbx
	.cfi_def_cfa_offset 24
	.cfi_offset 3, -24
	movq	%rsi, %rbx
	pushq	%rcx
	.cfi_def_cfa_offset 32
	.loc 1 30 13 view .LVU3
	call	fileno
.LVL1:
	.loc 1 31 5 is_stmt 1 view .LVU4
	.loc 1 31 8 is_stmt 0 view .LVU5
	cmpl	$-1, %eax
	jne	.L1
	.loc 1 33 9 is_stmt 1 view .LVU6
	movq	stderr(%rip), %rdi
	movl	%ebp, %ecx
	movq	%rbx, %rdx
	xorl	%eax, %eax
.LVL2:
	.loc 1 33 9 is_stmt 0 view .LVU7
	movl	$.LC0, %esi
	call	fprintf
.LVL3:
	.loc 1 34 9 is_stmt 1 view .LVU8
	.loc 1 34 55 is_stmt 0 view .LVU9
	call	__errno_location
.LVL4:
	.loc 1 34 9 view .LVU10
	movq	stderr(%rip), %rdi
	movl	$.LC1, %esi
	movl	(%rax), %edx
	.loc 1 34 55 view .LVU11
	movq	%rax, %rbx
.LVL5:
	.loc 1 34 9 view .LVU12
	xorl	%eax, %eax
	call	fprintf
.LVL6:
	.loc 1 35 9 is_stmt 1 view .LVU13
	movl	$.LC2, %edi
	call	perror
.LVL7:
	.loc 1 36 9 view .LVU14
	movl	(%rbx), %edi
	call	exit
.LVL8:
.L1:
	.loc 1 39 1 is_stmt 0 view .LVU15
	popq	%rdx
	.cfi_def_cfa_offset 24
	popq	%rbx
	.cfi_def_cfa_offset 16
.LVL9:
	.loc 1 39 1 view .LVU16
	popq	%rbp
	.cfi_def_cfa_offset 8
.LVL10:
	.loc 1 39 1 view .LVU17
	ret
	.cfi_endproc
.LFE6:
	.size	fileno_c, .-fileno_c
	.globl	fileno_cb
	.type	fileno_cb, @function
fileno_cb:
.LVL11:
.LFB7:
	.loc 1 42 1 is_stmt 1 view -0
	.cfi_startproc
	.loc 1 43 5 view .LVU19
	.loc 1 42 1 is_stmt 0 view .LVU20
	pushq	%rbp
	.cfi_def_cfa_offset 16
	.cfi_offset 6, -16
	movq	%rdi, %rbp
	movq	%rsi, %rdi
.LVL12:
	.loc 1 42 1 view .LVU21
	pushq	%rbx
	.cfi_def_cfa_offset 24
	.cfi_offset 3, -24
	pushq	%rcx
	.cfi_def_cfa_offset 32
	.loc 1 43 13 view .LVU22
	call	fileno
.LVL13:
	.loc 1 43 13 view .LVU23
	movl	%eax, %ebx
.LVL14:
	.loc 1 44 5 is_stmt 1 view .LVU24
	.loc 1 44 8 is_stmt 0 view .LVU25
	incl	%eax
.LVL15:
	.loc 1 44 8 view .LVU26
	jne	.L5
	.loc 1 46 9 is_stmt 1 view .LVU27
	call	*%rbp
.LVL16:
	.loc 1 48 5 view .LVU28
.L5:
	.loc 1 49 1 is_stmt 0 view .LVU29
	movl	%ebx, %eax
	popq	%rdx
	.cfi_def_cfa_offset 24
	popq	%rbx
	.cfi_def_cfa_offset 16
.LVL17:
	.loc 1 49 1 view .LVU30
	popq	%rbp
	.cfi_def_cfa_offset 8
.LVL18:
	.loc 1 49 1 view .LVU31
	ret
	.cfi_endproc
.LFE7:
	.size	fileno_cb, .-fileno_cb
.Letext0:
	.file 2 "/usr/lib/gcc/x86_64-redhat-linux/12/include/stddef.h"
	.file 3 "/usr/include/bits/types.h"
	.file 4 "/usr/include/bits/types/struct_FILE.h"
	.file 5 "/usr/include/bits/types/FILE.h"
	.file 6 "/usr/include/stdlib.h"
	.file 7 "/usr/include/stdio.h"
	.file 8 "/usr/include/errno.h"
	.section	.note.GNU-stack,"",@progbits
