	.file	"uni_1.c"
	.text
.Ltext0:
	.file 0 "/home/st/start/communis/Deploy_store/.qa/main_repo_fn/dir_c_/_c_/_man/nbase/_Head_sis_libs_v.cplus/17_stdio_h/1_functions/1_clearerr/clearerr_cpjs" "lib/uni_1.c"
	.section	.rodata.str1.1,"aMS",@progbits,1
.LC0:
	.string	"failed in file %s at line # %d\n"
.LC1:
	.string	"from access_c pathname = %s,mode = %d errno = %d\n"
.LC2:
	.string	"exit(errno) with"
	.text
	.globl	access_c
	.type	access_c, @function
access_c:
.LVL0:
.LFB6:
	.file 1 "lib/uni_1.c"
	.loc 1 29 1 view -0
	.cfi_startproc
	.loc 1 30 5 view .LVU1
	.loc 1 29 1 is_stmt 0 view .LVU2
	pushq	%r12
	.cfi_def_cfa_offset 16
	.cfi_offset 12, -16
	movl	%esi, %r12d
	pushq	%rbp
	.cfi_def_cfa_offset 24
	.cfi_offset 6, -24
	movq	%rdi, %rbp
	pushq	%rbx
	.cfi_def_cfa_offset 32
	.cfi_offset 3, -32
	subq	$16, %rsp
	.cfi_def_cfa_offset 48
	.loc 1 29 1 view .LVU3
	movq	%rdx, 8(%rsp)
	movl	%ecx, 4(%rsp)
	.loc 1 30 13 view .LVU4
	call	access
.LVL1:
	.loc 1 31 5 is_stmt 1 view .LVU5
	.loc 1 31 8 is_stmt 0 view .LVU6
	movl	4(%rsp), %ecx
	movq	8(%rsp), %rdx
	cmpl	$-1, %eax
	jne	.L1
	.loc 1 33 9 is_stmt 1 view .LVU7
	movq	stderr(%rip), %rdi
	movl	$.LC0, %esi
	xorl	%eax, %eax
.LVL2:
	.loc 1 33 9 is_stmt 0 view .LVU8
	call	fprintf
.LVL3:
	.loc 1 34 9 is_stmt 1 view .LVU9
	.loc 1 34 92 is_stmt 0 view .LVU10
	call	__errno_location
.LVL4:
	.loc 1 34 9 view .LVU11
	movl	%r12d, %ecx
	movq	%rbp, %rdx
	movl	$.LC1, %esi
	movl	(%rax), %r8d
	movq	stderr(%rip), %rdi
	.loc 1 34 92 view .LVU12
	movq	%rax, %rbx
	.loc 1 34 9 view .LVU13
	xorl	%eax, %eax
	call	fprintf
.LVL5:
	.loc 1 35 9 is_stmt 1 view .LVU14
	movl	$.LC2, %edi
	call	perror
.LVL6:
	.loc 1 36 9 view .LVU15
	movl	(%rbx), %edi
	call	exit
.LVL7:
.L1:
	.loc 1 39 1 is_stmt 0 view .LVU16
	addq	$16, %rsp
	.cfi_def_cfa_offset 32
	popq	%rbx
	.cfi_def_cfa_offset 24
	popq	%rbp
	.cfi_def_cfa_offset 16
.LVL8:
	.loc 1 39 1 view .LVU17
	popq	%r12
	.cfi_def_cfa_offset 8
.LVL9:
	.loc 1 39 1 view .LVU18
	ret
	.cfi_endproc
.LFE6:
	.size	access_c, .-access_c
	.globl	access_cb
	.type	access_cb, @function
access_cb:
.LVL10:
.LFB7:
	.loc 1 42 1 is_stmt 1 view -0
	.cfi_startproc
	.loc 1 43 5 view .LVU20
	.loc 1 42 1 is_stmt 0 view .LVU21
	pushq	%r13
	.cfi_def_cfa_offset 16
	.cfi_offset 13, -16
	movq	%rdi, %r13
	pushq	%r12
	.cfi_def_cfa_offset 24
	.cfi_offset 12, -24
	movl	%edx, %r12d
	pushq	%rbp
	.cfi_def_cfa_offset 32
	.cfi_offset 6, -32
	movq	%rsi, %rbp
	.loc 1 43 13 view .LVU22
	movl	%edx, %esi
.LVL11:
	.loc 1 42 1 view .LVU23
	pushq	%rbx
	.cfi_def_cfa_offset 40
	.cfi_offset 3, -40
	.loc 1 43 13 view .LVU24
	movq	%rbp, %rdi
.LVL12:
	.loc 1 42 1 view .LVU25
	pushq	%rcx
	.cfi_def_cfa_offset 48
	.loc 1 43 13 view .LVU26
	call	access
.LVL13:
	.loc 1 43 13 view .LVU27
	movl	%eax, %ebx
.LVL14:
	.loc 1 44 5 is_stmt 1 view .LVU28
	.loc 1 44 8 is_stmt 0 view .LVU29
	incl	%eax
.LVL15:
	.loc 1 44 8 view .LVU30
	jne	.L5
	.loc 1 46 9 is_stmt 1 view .LVU31
	movl	%r12d, %esi
	movq	%rbp, %rdi
	call	*%r13
.LVL16:
	.loc 1 48 5 view .LVU32
.L5:
	.loc 1 49 1 is_stmt 0 view .LVU33
	popq	%rdx
	.cfi_def_cfa_offset 40
	movl	%ebx, %eax
	popq	%rbx
	.cfi_def_cfa_offset 32
.LVL17:
	.loc 1 49 1 view .LVU34
	popq	%rbp
	.cfi_def_cfa_offset 24
.LVL18:
	.loc 1 49 1 view .LVU35
	popq	%r12
	.cfi_def_cfa_offset 16
.LVL19:
	.loc 1 49 1 view .LVU36
	popq	%r13
	.cfi_def_cfa_offset 8
.LVL20:
	.loc 1 49 1 view .LVU37
	ret
	.cfi_endproc
.LFE7:
	.size	access_cb, .-access_cb
	.section	.rodata.str1.1
.LC3:
	.string	"from chdir_\321\201 pathname = %s, errno = %d\n"
	.text
	.globl	chdir_с
	.type	chdir_с, @function
chdir_с:
.LVL21:
.LFB8:
	.loc 1 55 1 is_stmt 1 view -0
	.cfi_startproc
	.loc 1 56 5 view .LVU39
	.loc 1 55 1 is_stmt 0 view .LVU40
	pushq	%r12
	.cfi_def_cfa_offset 16
	.cfi_offset 12, -16
	movl	%edx, %r12d
	pushq	%rbp
	.cfi_def_cfa_offset 24
	.cfi_offset 6, -24
	movq	%rdi, %rbp
	pushq	%rbx
	.cfi_def_cfa_offset 32
	.cfi_offset 3, -32
	.loc 1 55 1 view .LVU41
	movq	%rsi, %rbx
	.loc 1 56 13 view .LVU42
	call	chdir
.LVL22:
	.loc 1 57 5 is_stmt 1 view .LVU43
	.loc 1 57 8 is_stmt 0 view .LVU44
	cmpl	$-1, %eax
	jne	.L8
	.loc 1 59 9 is_stmt 1 view .LVU45
	movq	stderr(%rip), %rdi
	movq	%rbx, %rdx
	movl	%r12d, %ecx
	xorl	%eax, %eax
.LVL23:
	.loc 1 59 9 is_stmt 0 view .LVU46
	movl	$.LC0, %esi
	call	fprintf
.LVL24:
	.loc 1 60 9 is_stmt 1 view .LVU47
	.loc 1 60 76 is_stmt 0 view .LVU48
	call	__errno_location
.LVL25:
	.loc 1 60 9 view .LVU49
	movq	stderr(%rip), %rdi
	movq	%rbp, %rdx
	movl	$.LC3, %esi
	movl	(%rax), %ecx
	.loc 1 60 76 view .LVU50
	movq	%rax, %rbx
.LVL26:
	.loc 1 60 9 view .LVU51
	xorl	%eax, %eax
	call	fprintf
.LVL27:
	.loc 1 61 9 is_stmt 1 view .LVU52
	movl	$.LC2, %edi
	call	perror
.LVL28:
	.loc 1 62 9 view .LVU53
	movl	(%rbx), %edi
	call	exit
.LVL29:
.L8:
	.loc 1 65 1 is_stmt 0 view .LVU54
	popq	%rbx
	.cfi_def_cfa_offset 24
.LVL30:
	.loc 1 65 1 view .LVU55
	popq	%rbp
	.cfi_def_cfa_offset 16
.LVL31:
	.loc 1 65 1 view .LVU56
	popq	%r12
	.cfi_def_cfa_offset 8
.LVL32:
	.loc 1 65 1 view .LVU57
	ret
	.cfi_endproc
.LFE8:
	.size	chdir_с, .-chdir_с
	.globl	chdir_сb
	.type	chdir_сb, @function
chdir_сb:
.LVL33:
.LFB9:
	.loc 1 68 1 is_stmt 1 view -0
	.cfi_startproc
	.loc 1 69 5 view .LVU59
	.loc 1 68 1 is_stmt 0 view .LVU60
	pushq	%r12
	.cfi_def_cfa_offset 16
	.cfi_offset 12, -16
	movq	%rdi, %r12
	.loc 1 69 13 view .LVU61
	movq	%rsi, %rdi
.LVL34:
	.loc 1 68 1 view .LVU62
	pushq	%rbp
	.cfi_def_cfa_offset 24
	.cfi_offset 6, -24
	movq	%rsi, %rbp
	pushq	%rbx
	.cfi_def_cfa_offset 32
	.cfi_offset 3, -32
	.loc 1 69 13 view .LVU63
	call	chdir
.LVL35:
	.loc 1 69 13 view .LVU64
	movl	%eax, %ebx
.LVL36:
	.loc 1 70 5 is_stmt 1 view .LVU65
	.loc 1 70 8 is_stmt 0 view .LVU66
	incl	%eax
.LVL37:
	.loc 1 70 8 view .LVU67
	jne	.L11
	.loc 1 72 9 is_stmt 1 view .LVU68
	movq	%rbp, %rdi
	call	*%r12
.LVL38:
	.loc 1 74 5 view .LVU69
.L11:
	.loc 1 75 1 is_stmt 0 view .LVU70
	movl	%ebx, %eax
	popq	%rbx
	.cfi_def_cfa_offset 24
.LVL39:
	.loc 1 75 1 view .LVU71
	popq	%rbp
	.cfi_def_cfa_offset 16
.LVL40:
	.loc 1 75 1 view .LVU72
	popq	%r12
	.cfi_def_cfa_offset 8
.LVL41:
	.loc 1 75 1 view .LVU73
	ret
	.cfi_endproc
.LFE9:
	.size	chdir_сb, .-chdir_сb
	.section	.rodata.str1.1
.LC4:
	.string	"from chown_\321\201 path = %s, owner = %d, owner = %d, errno = %d\n"
	.text
	.globl	chown_с
	.type	chown_с, @function
chown_с:
.LVL42:
.LFB10:
	.loc 1 79 1 is_stmt 1 view -0
	.cfi_startproc
	.loc 1 80 5 view .LVU75
	.loc 1 79 1 is_stmt 0 view .LVU76
	pushq	%r14
	.cfi_def_cfa_offset 16
	.cfi_offset 14, -16
	movl	%r8d, %r14d
	pushq	%r13
	.cfi_def_cfa_offset 24
	.cfi_offset 13, -24
	movl	%edx, %r13d
	pushq	%r12
	.cfi_def_cfa_offset 32
	.cfi_offset 12, -32
	movl	%esi, %r12d
	pushq	%rbp
	.cfi_def_cfa_offset 40
	.cfi_offset 6, -40
	movq	%rdi, %rbp
	pushq	%rbx
	.cfi_def_cfa_offset 48
	.cfi_offset 3, -48
	.loc 1 79 1 view .LVU77
	movq	%rcx, %rbx
	.loc 1 80 13 view .LVU78
	call	chown
.LVL43:
	.loc 1 81 5 is_stmt 1 view .LVU79
	.loc 1 81 8 is_stmt 0 view .LVU80
	cmpl	$-1, %eax
	jne	.L14
	.loc 1 83 9 is_stmt 1 view .LVU81
	movq	stderr(%rip), %rdi
	movq	%rbx, %rdx
	movl	%r14d, %ecx
	xorl	%eax, %eax
.LVL44:
	.loc 1 83 9 is_stmt 0 view .LVU82
	movl	$.LC0, %esi
	call	fprintf
.LVL45:
	.loc 1 84 9 is_stmt 1 view .LVU83
	.loc 1 84 110 is_stmt 0 view .LVU84
	call	__errno_location
.LVL46:
	.loc 1 84 9 view .LVU85
	movl	%r13d, %r8d
	movl	%r12d, %ecx
	movq	%rbp, %rdx
	movl	(%rax), %r9d
	movq	stderr(%rip), %rdi
	.loc 1 84 110 view .LVU86
	movq	%rax, %rbx
.LVL47:
	.loc 1 84 9 view .LVU87
	movl	$.LC4, %esi
	xorl	%eax, %eax
	call	fprintf
.LVL48:
	.loc 1 85 9 is_stmt 1 view .LVU88
	movl	$.LC2, %edi
	call	perror
.LVL49:
	.loc 1 86 9 view .LVU89
	movl	(%rbx), %edi
	call	exit
.LVL50:
.L14:
	.loc 1 89 1 is_stmt 0 view .LVU90
	popq	%rbx
	.cfi_def_cfa_offset 40
.LVL51:
	.loc 1 89 1 view .LVU91
	popq	%rbp
	.cfi_def_cfa_offset 32
.LVL52:
	.loc 1 89 1 view .LVU92
	popq	%r12
	.cfi_def_cfa_offset 24
.LVL53:
	.loc 1 89 1 view .LVU93
	popq	%r13
	.cfi_def_cfa_offset 16
.LVL54:
	.loc 1 89 1 view .LVU94
	popq	%r14
	.cfi_def_cfa_offset 8
.LVL55:
	.loc 1 89 1 view .LVU95
	ret
	.cfi_endproc
.LFE10:
	.size	chown_с, .-chown_с
	.globl	chown_сb
	.type	chown_сb, @function
chown_сb:
.LVL56:
.LFB11:
	.loc 1 92 1 is_stmt 1 view -0
	.cfi_startproc
	.loc 1 93 5 view .LVU97
	.loc 1 92 1 is_stmt 0 view .LVU98
	pushq	%r14
	.cfi_def_cfa_offset 16
	.cfi_offset 14, -16
	movq	%rdi, %r14
	pushq	%r13
	.cfi_def_cfa_offset 24
	.cfi_offset 13, -24
	movl	%ecx, %r13d
	pushq	%r12
	.cfi_def_cfa_offset 32
	.cfi_offset 12, -32
	movl	%edx, %r12d
	.loc 1 93 13 view .LVU99
	movl	%ecx, %edx
.LVL57:
	.loc 1 92 1 view .LVU100
	pushq	%rbp
	.cfi_def_cfa_offset 40
	.cfi_offset 6, -40
	movq	%rsi, %rbp
	.loc 1 93 13 view .LVU101
	movl	%r12d, %esi
.LVL58:
	.loc 1 92 1 view .LVU102
	pushq	%rbx
	.cfi_def_cfa_offset 48
	.cfi_offset 3, -48
	.loc 1 93 13 view .LVU103
	movq	%rbp, %rdi
.LVL59:
	.loc 1 93 13 view .LVU104
	call	chown
.LVL60:
	.loc 1 93 13 view .LVU105
	movl	%eax, %ebx
.LVL61:
	.loc 1 94 5 is_stmt 1 view .LVU106
	.loc 1 94 8 is_stmt 0 view .LVU107
	incl	%eax
.LVL62:
	.loc 1 94 8 view .LVU108
	jne	.L17
	.loc 1 96 9 is_stmt 1 view .LVU109
	movl	%r13d, %edx
	movl	%r12d, %esi
	movq	%rbp, %rdi
	call	*%r14
.LVL63:
	.loc 1 98 5 view .LVU110
.L17:
	.loc 1 99 1 is_stmt 0 view .LVU111
	movl	%ebx, %eax
	popq	%rbx
	.cfi_def_cfa_offset 40
.LVL64:
	.loc 1 99 1 view .LVU112
	popq	%rbp
	.cfi_def_cfa_offset 32
.LVL65:
	.loc 1 99 1 view .LVU113
	popq	%r12
	.cfi_def_cfa_offset 24
.LVL66:
	.loc 1 99 1 view .LVU114
	popq	%r13
	.cfi_def_cfa_offset 16
.LVL67:
	.loc 1 99 1 view .LVU115
	popq	%r14
	.cfi_def_cfa_offset 8
.LVL68:
	.loc 1 99 1 view .LVU116
	ret
	.cfi_endproc
.LFE11:
	.size	chown_сb, .-chown_сb
	.section	.rodata.str1.1
.LC5:
	.string	"from close_\321\201 fildes = %d, errno = %d\n"
	.text
	.globl	close_с
	.type	close_с, @function
close_с:
.LVL69:
.LFB12:
	.loc 1 103 1 is_stmt 1 view -0
	.cfi_startproc
	.loc 1 104 5 view .LVU118
	.loc 1 103 1 is_stmt 0 view .LVU119
	pushq	%r12
	.cfi_def_cfa_offset 16
	.cfi_offset 12, -16
	movl	%edx, %r12d
	pushq	%rbp
	.cfi_def_cfa_offset 24
	.cfi_offset 6, -24
	movl	%edi, %ebp
	pushq	%rbx
	.cfi_def_cfa_offset 32
	.cfi_offset 3, -32
	.loc 1 103 1 view .LVU120
	movq	%rsi, %rbx
	.loc 1 104 13 view .LVU121
	call	close
.LVL70:
	.loc 1 105 5 is_stmt 1 view .LVU122
	.loc 1 105 8 is_stmt 0 view .LVU123
	cmpl	$-1, %eax
	jne	.L20
	.loc 1 107 9 is_stmt 1 view .LVU124
	movq	stderr(%rip), %rdi
	movq	%rbx, %rdx
	movl	%r12d, %ecx
	xorl	%eax, %eax
.LVL71:
	.loc 1 107 9 is_stmt 0 view .LVU125
	movl	$.LC0, %esi
	call	fprintf
.LVL72:
	.loc 1 108 9 is_stmt 1 view .LVU126
	.loc 1 108 76 is_stmt 0 view .LVU127
	call	__errno_location
.LVL73:
	.loc 1 108 9 view .LVU128
	movq	stderr(%rip), %rdi
	movl	%ebp, %edx
	movl	$.LC5, %esi
	movl	(%rax), %ecx
	.loc 1 108 76 view .LVU129
	movq	%rax, %rbx
.LVL74:
	.loc 1 108 9 view .LVU130
	xorl	%eax, %eax
	call	fprintf
.LVL75:
	.loc 1 109 9 is_stmt 1 view .LVU131
	movl	$.LC2, %edi
	call	perror
.LVL76:
	.loc 1 110 9 view .LVU132
	movl	(%rbx), %edi
	call	exit
.LVL77:
.L20:
	.loc 1 113 1 is_stmt 0 view .LVU133
	popq	%rbx
	.cfi_def_cfa_offset 24
.LVL78:
	.loc 1 113 1 view .LVU134
	popq	%rbp
	.cfi_def_cfa_offset 16
.LVL79:
	.loc 1 113 1 view .LVU135
	popq	%r12
	.cfi_def_cfa_offset 8
.LVL80:
	.loc 1 113 1 view .LVU136
	ret
	.cfi_endproc
.LFE12:
	.size	close_с, .-close_с
	.globl	close_сb
	.type	close_сb, @function
close_сb:
.LVL81:
.LFB13:
	.loc 1 116 1 is_stmt 1 view -0
	.cfi_startproc
	.loc 1 117 5 view .LVU138
	.loc 1 116 1 is_stmt 0 view .LVU139
	pushq	%r12
	.cfi_def_cfa_offset 16
	.cfi_offset 12, -16
	movq	%rdi, %r12
	.loc 1 117 13 view .LVU140
	movl	%esi, %edi
.LVL82:
	.loc 1 116 1 view .LVU141
	pushq	%rbp
	.cfi_def_cfa_offset 24
	.cfi_offset 6, -24
	movl	%esi, %ebp
	pushq	%rbx
	.cfi_def_cfa_offset 32
	.cfi_offset 3, -32
	.loc 1 117 13 view .LVU142
	call	close
.LVL83:
	.loc 1 117 13 view .LVU143
	movl	%eax, %ebx
.LVL84:
	.loc 1 118 5 is_stmt 1 view .LVU144
	.loc 1 118 8 is_stmt 0 view .LVU145
	incl	%eax
.LVL85:
	.loc 1 118 8 view .LVU146
	jne	.L23
	.loc 1 120 9 is_stmt 1 view .LVU147
	movl	%ebp, %edi
	call	*%r12
.LVL86:
	.loc 1 122 5 view .LVU148
.L23:
	.loc 1 123 1 is_stmt 0 view .LVU149
	movl	%ebx, %eax
	popq	%rbx
	.cfi_def_cfa_offset 24
.LVL87:
	.loc 1 123 1 view .LVU150
	popq	%rbp
	.cfi_def_cfa_offset 16
.LVL88:
	.loc 1 123 1 view .LVU151
	popq	%r12
	.cfi_def_cfa_offset 8
.LVL89:
	.loc 1 123 1 view .LVU152
	ret
	.cfi_endproc
.LFE13:
	.size	close_сb, .-close_сb
	.section	.rodata.str1.1
.LC6:
	.string	"from dup_\321\201 oldfd = %d, errno = %d\n"
	.text
	.globl	dup_с
	.type	dup_с, @function
dup_с:
.LVL90:
.LFB14:
	.loc 1 129 1 is_stmt 1 view -0
	.cfi_startproc
	.loc 1 130 5 view .LVU154
	.loc 1 129 1 is_stmt 0 view .LVU155
	pushq	%r12
	.cfi_def_cfa_offset 16
	.cfi_offset 12, -16
	movl	%edx, %r12d
	pushq	%rbp
	.cfi_def_cfa_offset 24
	.cfi_offset 6, -24
	movl	%edi, %ebp
	pushq	%rbx
	.cfi_def_cfa_offset 32
	.cfi_offset 3, -32
	.loc 1 129 1 view .LVU156
	movq	%rsi, %rbx
	.loc 1 130 13 view .LVU157
	call	dup
.LVL91:
	.loc 1 131 5 is_stmt 1 view .LVU158
	.loc 1 131 8 is_stmt 0 view .LVU159
	cmpl	$-1, %eax
	jne	.L26
	.loc 1 133 9 is_stmt 1 view .LVU160
	movq	stderr(%rip), %rdi
	movq	%rbx, %rdx
	movl	%r12d, %ecx
	xorl	%eax, %eax
.LVL92:
	.loc 1 133 9 is_stmt 0 view .LVU161
	movl	$.LC0, %esi
	call	fprintf
.LVL93:
	.loc 1 134 9 is_stmt 1 view .LVU162
	.loc 1 134 72 is_stmt 0 view .LVU163
	call	__errno_location
.LVL94:
	.loc 1 134 9 view .LVU164
	movq	stderr(%rip), %rdi
	movl	%ebp, %edx
	movl	$.LC6, %esi
	movl	(%rax), %ecx
	.loc 1 134 72 view .LVU165
	movq	%rax, %rbx
.LVL95:
	.loc 1 134 9 view .LVU166
	xorl	%eax, %eax
	call	fprintf
.LVL96:
	.loc 1 135 9 is_stmt 1 view .LVU167
	movl	$.LC2, %edi
	call	perror
.LVL97:
	.loc 1 136 9 view .LVU168
	movl	(%rbx), %edi
	call	exit
.LVL98:
.L26:
	.loc 1 139 1 is_stmt 0 view .LVU169
	popq	%rbx
	.cfi_def_cfa_offset 24
.LVL99:
	.loc 1 139 1 view .LVU170
	popq	%rbp
	.cfi_def_cfa_offset 16
.LVL100:
	.loc 1 139 1 view .LVU171
	popq	%r12
	.cfi_def_cfa_offset 8
.LVL101:
	.loc 1 139 1 view .LVU172
	ret
	.cfi_endproc
.LFE14:
	.size	dup_с, .-dup_с
	.globl	dup_сb
	.type	dup_сb, @function
dup_сb:
.LVL102:
.LFB15:
	.loc 1 142 1 is_stmt 1 view -0
	.cfi_startproc
	.loc 1 143 5 view .LVU174
	.loc 1 142 1 is_stmt 0 view .LVU175
	pushq	%r12
	.cfi_def_cfa_offset 16
	.cfi_offset 12, -16
	movq	%rdi, %r12
	.loc 1 143 13 view .LVU176
	movl	%esi, %edi
.LVL103:
	.loc 1 142 1 view .LVU177
	pushq	%rbp
	.cfi_def_cfa_offset 24
	.cfi_offset 6, -24
	movl	%esi, %ebp
	pushq	%rbx
	.cfi_def_cfa_offset 32
	.cfi_offset 3, -32
	.loc 1 143 13 view .LVU178
	call	dup
.LVL104:
	.loc 1 143 13 view .LVU179
	movl	%eax, %ebx
.LVL105:
	.loc 1 144 5 is_stmt 1 view .LVU180
	.loc 1 144 8 is_stmt 0 view .LVU181
	incl	%eax
.LVL106:
	.loc 1 144 8 view .LVU182
	jne	.L29
	.loc 1 146 9 is_stmt 1 view .LVU183
	movl	%ebp, %edi
	call	*%r12
.LVL107:
	.loc 1 148 5 view .LVU184
.L29:
	.loc 1 149 1 is_stmt 0 view .LVU185
	movl	%ebx, %eax
	popq	%rbx
	.cfi_def_cfa_offset 24
.LVL108:
	.loc 1 149 1 view .LVU186
	popq	%rbp
	.cfi_def_cfa_offset 16
.LVL109:
	.loc 1 149 1 view .LVU187
	popq	%r12
	.cfi_def_cfa_offset 8
.LVL110:
	.loc 1 149 1 view .LVU188
	ret
	.cfi_endproc
.LFE15:
	.size	dup_сb, .-dup_сb
	.section	.rodata.str1.1
.LC7:
	.string	"from fork_\321\201 pid_t = %d, errno = %d\n"
	.text
	.globl	fork_с
	.type	fork_с, @function
fork_с:
.LVL111:
.LFB16:
	.loc 1 167 1 is_stmt 1 view -0
	.cfi_startproc
	.loc 1 168 5 view .LVU190
	.loc 1 167 1 is_stmt 0 view .LVU191
	pushq	%rbp
	.cfi_def_cfa_offset 16
	.cfi_offset 6, -16
	movl	%esi, %ebp
	pushq	%rbx
	.cfi_def_cfa_offset 24
	.cfi_offset 3, -24
	movq	%rdi, %rbx
	pushq	%rcx
	.cfi_def_cfa_offset 32
	.loc 1 168 15 view .LVU192
	call	fork
.LVL112:
	.loc 1 169 5 is_stmt 1 view .LVU193
	.loc 1 169 8 is_stmt 0 view .LVU194
	cmpl	$-1, %eax
	jne	.L32
	.loc 1 171 9 is_stmt 1 view .LVU195
	movq	stderr(%rip), %rdi
	movq	%rbx, %rdx
	movl	%ebp, %ecx
	xorl	%eax, %eax
.LVL113:
	.loc 1 171 9 is_stmt 0 view .LVU196
	movl	$.LC0, %esi
	call	fprintf
.LVL114:
	.loc 1 172 9 is_stmt 1 view .LVU197
	.loc 1 172 69 is_stmt 0 view .LVU198
	call	__errno_location
.LVL115:
	.loc 1 172 9 view .LVU199
	movq	stderr(%rip), %rdi
	orl	$-1, %edx
	movl	$.LC7, %esi
	movl	(%rax), %ecx
	.loc 1 172 69 view .LVU200
	movq	%rax, %rbx
.LVL116:
	.loc 1 172 9 view .LVU201
	xorl	%eax, %eax
	call	fprintf
.LVL117:
	.loc 1 173 9 is_stmt 1 view .LVU202
	movl	$.LC2, %edi
	call	perror
.LVL118:
	.loc 1 174 9 view .LVU203
	movl	(%rbx), %edi
	call	exit
.LVL119:
.L32:
	.loc 1 177 1 is_stmt 0 view .LVU204
	popq	%rdx
	.cfi_def_cfa_offset 24
	popq	%rbx
	.cfi_def_cfa_offset 16
.LVL120:
	.loc 1 177 1 view .LVU205
	popq	%rbp
	.cfi_def_cfa_offset 8
.LVL121:
	.loc 1 177 1 view .LVU206
	ret
	.cfi_endproc
.LFE16:
	.size	fork_с, .-fork_с
	.globl	fork_сb
	.type	fork_сb, @function
fork_сb:
.LVL122:
.LFB17:
	.loc 1 180 1 is_stmt 1 view -0
	.cfi_startproc
	.loc 1 181 5 view .LVU208
	.loc 1 180 1 is_stmt 0 view .LVU209
	pushq	%rbp
	.cfi_def_cfa_offset 16
	.cfi_offset 6, -16
	movq	%rdi, %rbp
	pushq	%rbx
	.cfi_def_cfa_offset 24
	.cfi_offset 3, -24
	pushq	%rcx
	.cfi_def_cfa_offset 32
	.loc 1 181 15 view .LVU210
	call	fork
.LVL123:
	.loc 1 181 15 view .LVU211
	movl	%eax, %ebx
.LVL124:
	.loc 1 182 5 is_stmt 1 view .LVU212
	.loc 1 182 8 is_stmt 0 view .LVU213
	incl	%eax
.LVL125:
	.loc 1 182 8 view .LVU214
	jne	.L35
	.loc 1 184 9 is_stmt 1 view .LVU215
	orl	$-1, %edi
	call	*%rbp
.LVL126:
	.loc 1 186 5 view .LVU216
.L35:
	.loc 1 187 1 is_stmt 0 view .LVU217
	movl	%ebx, %eax
	popq	%rdx
	.cfi_def_cfa_offset 24
	popq	%rbx
	.cfi_def_cfa_offset 16
.LVL127:
	.loc 1 187 1 view .LVU218
	popq	%rbp
	.cfi_def_cfa_offset 8
.LVL128:
	.loc 1 187 1 view .LVU219
	ret
	.cfi_endproc
.LFE17:
	.size	fork_сb, .-fork_сb
	.section	.rodata.str1.1
.LC8:
	.string	"from fsync_\321\201 fildes = %d, errno = %d\n"
	.text
	.globl	fsync_с
	.type	fsync_с, @function
fsync_с:
.LVL129:
.LFB18:
	.loc 1 191 1 is_stmt 1 view -0
	.cfi_startproc
	.loc 1 192 5 view .LVU221
	.loc 1 191 1 is_stmt 0 view .LVU222
	pushq	%r12
	.cfi_def_cfa_offset 16
	.cfi_offset 12, -16
	movl	%edx, %r12d
	pushq	%rbp
	.cfi_def_cfa_offset 24
	.cfi_offset 6, -24
	movl	%edi, %ebp
	pushq	%rbx
	.cfi_def_cfa_offset 32
	.cfi_offset 3, -32
	.loc 1 191 1 view .LVU223
	movq	%rsi, %rbx
	.loc 1 192 13 view .LVU224
	call	fsync
.LVL130:
	.loc 1 193 5 is_stmt 1 view .LVU225
	.loc 1 193 8 is_stmt 0 view .LVU226
	cmpl	$-1, %eax
	jne	.L38
	.loc 1 195 9 is_stmt 1 view .LVU227
	movq	stderr(%rip), %rdi
	movq	%rbx, %rdx
	movl	%r12d, %ecx
	xorl	%eax, %eax
.LVL131:
	.loc 1 195 9 is_stmt 0 view .LVU228
	movl	$.LC0, %esi
	call	fprintf
.LVL132:
	.loc 1 196 9 is_stmt 1 view .LVU229
	.loc 1 196 76 is_stmt 0 view .LVU230
	call	__errno_location
.LVL133:
	.loc 1 196 9 view .LVU231
	movq	stderr(%rip), %rdi
	movl	%ebp, %edx
	movl	$.LC8, %esi
	movl	(%rax), %ecx
	.loc 1 196 76 view .LVU232
	movq	%rax, %rbx
.LVL134:
	.loc 1 196 9 view .LVU233
	xorl	%eax, %eax
	call	fprintf
.LVL135:
	.loc 1 197 9 is_stmt 1 view .LVU234
	movl	$.LC2, %edi
	call	perror
.LVL136:
	.loc 1 198 9 view .LVU235
	movl	(%rbx), %edi
	call	exit
.LVL137:
.L38:
	.loc 1 201 1 is_stmt 0 view .LVU236
	popq	%rbx
	.cfi_def_cfa_offset 24
.LVL138:
	.loc 1 201 1 view .LVU237
	popq	%rbp
	.cfi_def_cfa_offset 16
.LVL139:
	.loc 1 201 1 view .LVU238
	popq	%r12
	.cfi_def_cfa_offset 8
.LVL140:
	.loc 1 201 1 view .LVU239
	ret
	.cfi_endproc
.LFE18:
	.size	fsync_с, .-fsync_с
	.globl	fsync_сb
	.type	fsync_сb, @function
fsync_сb:
.LVL141:
.LFB19:
	.loc 1 204 1 is_stmt 1 view -0
	.cfi_startproc
	.loc 1 205 5 view .LVU241
	.loc 1 204 1 is_stmt 0 view .LVU242
	pushq	%r12
	.cfi_def_cfa_offset 16
	.cfi_offset 12, -16
	movq	%rdi, %r12
	.loc 1 205 13 view .LVU243
	movl	%esi, %edi
.LVL142:
	.loc 1 204 1 view .LVU244
	pushq	%rbp
	.cfi_def_cfa_offset 24
	.cfi_offset 6, -24
	movl	%esi, %ebp
	pushq	%rbx
	.cfi_def_cfa_offset 32
	.cfi_offset 3, -32
	.loc 1 205 13 view .LVU245
	call	fsync
.LVL143:
	.loc 1 205 13 view .LVU246
	movl	%eax, %ebx
.LVL144:
	.loc 1 206 5 is_stmt 1 view .LVU247
	.loc 1 206 8 is_stmt 0 view .LVU248
	incl	%eax
.LVL145:
	.loc 1 206 8 view .LVU249
	jne	.L41
	.loc 1 208 9 is_stmt 1 view .LVU250
	movl	%ebp, %edi
	call	*%r12
.LVL146:
	.loc 1 210 5 view .LVU251
.L41:
	.loc 1 211 1 is_stmt 0 view .LVU252
	movl	%ebx, %eax
	popq	%rbx
	.cfi_def_cfa_offset 24
.LVL147:
	.loc 1 211 1 view .LVU253
	popq	%rbp
	.cfi_def_cfa_offset 16
.LVL148:
	.loc 1 211 1 view .LVU254
	popq	%r12
	.cfi_def_cfa_offset 8
.LVL149:
	.loc 1 211 1 view .LVU255
	ret
	.cfi_endproc
.LFE19:
	.size	fsync_сb, .-fsync_сb
	.section	.rodata.str1.1
.LC9:
	.string	"from getgroups_\321\201 errno = %d\n"
	.text
	.globl	getgroups_с
	.type	getgroups_с, @function
getgroups_с:
.LVL150:
.LFB20:
	.loc 1 219 1 is_stmt 1 view -0
	.cfi_startproc
	.loc 1 220 5 view .LVU257
	.loc 1 219 1 is_stmt 0 view .LVU258
	pushq	%rbx
	.cfi_def_cfa_offset 16
	.cfi_offset 3, -16
	subq	$16, %rsp
	.cfi_def_cfa_offset 32
	.loc 1 219 1 view .LVU259
	movq	%rdx, 8(%rsp)
	movl	%ecx, 4(%rsp)
	.loc 1 220 13 view .LVU260
	call	getgroups
.LVL151:
	.loc 1 221 5 is_stmt 1 view .LVU261
	.loc 1 221 8 is_stmt 0 view .LVU262
	movl	4(%rsp), %ecx
	movq	8(%rsp), %rdx
	cmpl	$-1, %eax
	jne	.L44
	.loc 1 223 9 is_stmt 1 view .LVU263
	movq	stderr(%rip), %rdi
	movl	$.LC0, %esi
	xorl	%eax, %eax
.LVL152:
	.loc 1 223 9 is_stmt 0 view .LVU264
	call	fprintf
.LVL153:
	.loc 1 224 9 is_stmt 1 view .LVU265
	.loc 1 224 59 is_stmt 0 view .LVU266
	call	__errno_location
.LVL154:
	.loc 1 224 9 view .LVU267
	movq	stderr(%rip), %rdi
	movl	$.LC9, %esi
	movl	(%rax), %edx
	.loc 1 224 59 view .LVU268
	movq	%rax, %rbx
	.loc 1 224 9 view .LVU269
	xorl	%eax, %eax
	call	fprintf
.LVL155:
	.loc 1 225 9 is_stmt 1 view .LVU270
	movl	$.LC2, %edi
	call	perror
.LVL156:
	.loc 1 226 9 view .LVU271
	movl	(%rbx), %edi
	call	exit
.LVL157:
.L44:
	.loc 1 229 1 is_stmt 0 view .LVU272
	addq	$16, %rsp
	.cfi_def_cfa_offset 16
	popq	%rbx
	.cfi_def_cfa_offset 8
	ret
	.cfi_endproc
.LFE20:
	.size	getgroups_с, .-getgroups_с
	.globl	getgroups_сb
	.type	getgroups_сb, @function
getgroups_сb:
.LVL158:
.LFB21:
	.loc 1 232 1 is_stmt 1 view -0
	.cfi_startproc
	.loc 1 233 5 view .LVU274
	.loc 1 232 1 is_stmt 0 view .LVU275
	pushq	%rbp
	.cfi_def_cfa_offset 16
	.cfi_offset 6, -16
	movq	%rdi, %rbp
	movl	%esi, %edi
.LVL159:
	.loc 1 232 1 view .LVU276
	movq	%rdx, %rsi
.LVL160:
	.loc 1 232 1 view .LVU277
	pushq	%rbx
	.cfi_def_cfa_offset 24
	.cfi_offset 3, -24
	pushq	%rcx
	.cfi_def_cfa_offset 32
	.loc 1 233 13 view .LVU278
	call	getgroups
.LVL161:
	.loc 1 233 13 view .LVU279
	movl	%eax, %ebx
.LVL162:
	.loc 1 234 5 is_stmt 1 view .LVU280
	.loc 1 234 8 is_stmt 0 view .LVU281
	incl	%eax
.LVL163:
	.loc 1 234 8 view .LVU282
	jne	.L47
	.loc 1 236 9 is_stmt 1 view .LVU283
	call	*%rbp
.LVL164:
	.loc 1 238 5 view .LVU284
.L47:
	.loc 1 239 1 is_stmt 0 view .LVU285
	movl	%ebx, %eax
	popq	%rdx
	.cfi_def_cfa_offset 24
	popq	%rbx
	.cfi_def_cfa_offset 16
.LVL165:
	.loc 1 239 1 view .LVU286
	popq	%rbp
	.cfi_def_cfa_offset 8
.LVL166:
	.loc 1 239 1 view .LVU287
	ret
	.cfi_endproc
.LFE21:
	.size	getgroups_сb, .-getgroups_сb
	.section	.rodata.str1.1
.LC10:
	.string	"from gethostname_\321\201 errno = %d\n"
	.text
	.globl	gethostname_с
	.type	gethostname_с, @function
gethostname_с:
.LVL167:
.LFB22:
	.loc 1 243 1 is_stmt 1 view -0
	.cfi_startproc
	.loc 1 244 5 view .LVU289
	.loc 1 243 1 is_stmt 0 view .LVU290
	pushq	%rbx
	.cfi_def_cfa_offset 16
	.cfi_offset 3, -16
	subq	$16, %rsp
	.cfi_def_cfa_offset 32
	.loc 1 243 1 view .LVU291
	movq	%rdx, 8(%rsp)
	movl	%ecx, 4(%rsp)
	.loc 1 244 13 view .LVU292
	call	gethostname
.LVL168:
	.loc 1 245 5 is_stmt 1 view .LVU293
	.loc 1 245 8 is_stmt 0 view .LVU294
	movl	4(%rsp), %ecx
	movq	8(%rsp), %rdx
	cmpl	$-1, %eax
	jne	.L50
	.loc 1 247 9 is_stmt 1 view .LVU295
	movq	stderr(%rip), %rdi
	movl	$.LC0, %esi
	xorl	%eax, %eax
.LVL169:
	.loc 1 247 9 is_stmt 0 view .LVU296
	call	fprintf
.LVL170:
	.loc 1 248 9 is_stmt 1 view .LVU297
	.loc 1 248 61 is_stmt 0 view .LVU298
	call	__errno_location
.LVL171:
	.loc 1 248 9 view .LVU299
	movq	stderr(%rip), %rdi
	movl	$.LC10, %esi
	movl	(%rax), %edx
	.loc 1 248 61 view .LVU300
	movq	%rax, %rbx
	.loc 1 248 9 view .LVU301
	xorl	%eax, %eax
	call	fprintf
.LVL172:
	.loc 1 249 9 is_stmt 1 view .LVU302
	movl	$.LC2, %edi
	call	perror
.LVL173:
	.loc 1 250 9 view .LVU303
	movl	(%rbx), %edi
	call	exit
.LVL174:
.L50:
	.loc 1 253 1 is_stmt 0 view .LVU304
	addq	$16, %rsp
	.cfi_def_cfa_offset 16
	popq	%rbx
	.cfi_def_cfa_offset 8
	ret
	.cfi_endproc
.LFE22:
	.size	gethostname_с, .-gethostname_с
	.globl	gethostname_сb
	.type	gethostname_сb, @function
gethostname_сb:
.LVL175:
.LFB23:
	.loc 1 256 1 is_stmt 1 view -0
	.cfi_startproc
	.loc 1 257 5 view .LVU306
	.loc 1 256 1 is_stmt 0 view .LVU307
	pushq	%rbp
	.cfi_def_cfa_offset 16
	.cfi_offset 6, -16
	movq	%rdi, %rbp
	movq	%rsi, %rdi
.LVL176:
	.loc 1 256 1 view .LVU308
	movq	%rdx, %rsi
.LVL177:
	.loc 1 256 1 view .LVU309
	pushq	%rbx
	.cfi_def_cfa_offset 24
	.cfi_offset 3, -24
	pushq	%rcx
	.cfi_def_cfa_offset 32
	.loc 1 257 13 view .LVU310
	call	gethostname
.LVL178:
	.loc 1 257 13 view .LVU311
	movl	%eax, %ebx
.LVL179:
	.loc 1 258 5 is_stmt 1 view .LVU312
	.loc 1 258 8 is_stmt 0 view .LVU313
	incl	%eax
.LVL180:
	.loc 1 258 8 view .LVU314
	jne	.L53
	.loc 1 260 9 is_stmt 1 view .LVU315
	call	*%rbp
.LVL181:
	.loc 1 262 5 view .LVU316
.L53:
	.loc 1 263 1 is_stmt 0 view .LVU317
	movl	%ebx, %eax
	popq	%rdx
	.cfi_def_cfa_offset 24
	popq	%rbx
	.cfi_def_cfa_offset 16
.LVL182:
	.loc 1 263 1 view .LVU318
	popq	%rbp
	.cfi_def_cfa_offset 8
.LVL183:
	.loc 1 263 1 view .LVU319
	ret
	.cfi_endproc
.LFE23:
	.size	gethostname_сb, .-gethostname_сb
	.section	.rodata.str1.1
.LC11:
	.string	"from getlogin_\321\201 errno = %d\n"
	.text
	.globl	getlogin_с
	.type	getlogin_с, @function
getlogin_с:
.LVL184:
.LFB24:
	.loc 1 266 1 is_stmt 1 view -0
	.cfi_startproc
	.loc 1 267 5 view .LVU321
	.loc 1 266 1 is_stmt 0 view .LVU322
	pushq	%rbp
	.cfi_def_cfa_offset 16
	.cfi_offset 6, -16
	movl	%esi, %ebp
	pushq	%rbx
	.cfi_def_cfa_offset 24
	.cfi_offset 3, -24
	movq	%rdi, %rbx
	pushq	%rcx
	.cfi_def_cfa_offset 32
	.loc 1 267 15 view .LVU323
	call	getlogin
.LVL185:
	.loc 1 268 5 is_stmt 1 view .LVU324
	.loc 1 268 8 is_stmt 0 view .LVU325
	testq	%rax, %rax
	jne	.L56
	.loc 1 270 9 is_stmt 1 view .LVU326
	movq	stderr(%rip), %rdi
	movl	%ebp, %ecx
	movq	%rbx, %rdx
	movl	$.LC0, %esi
	call	fprintf
.LVL186:
	.loc 1 271 9 view .LVU327
	.loc 1 271 58 is_stmt 0 view .LVU328
	call	__errno_location
.LVL187:
	.loc 1 271 9 view .LVU329
	movq	stderr(%rip), %rdi
	movl	$.LC11, %esi
	movl	(%rax), %edx
	.loc 1 271 58 view .LVU330
	movq	%rax, %rbx
.LVL188:
	.loc 1 271 9 view .LVU331
	xorl	%eax, %eax
	call	fprintf
.LVL189:
	.loc 1 272 9 is_stmt 1 view .LVU332
	movl	$.LC2, %edi
	call	perror
.LVL190:
	.loc 1 273 9 view .LVU333
	movl	(%rbx), %edi
	call	exit
.LVL191:
.L56:
	.loc 1 276 1 is_stmt 0 view .LVU334
	popq	%rdx
	.cfi_def_cfa_offset 24
	popq	%rbx
	.cfi_def_cfa_offset 16
.LVL192:
	.loc 1 276 1 view .LVU335
	popq	%rbp
	.cfi_def_cfa_offset 8
.LVL193:
	.loc 1 276 1 view .LVU336
	ret
	.cfi_endproc
.LFE24:
	.size	getlogin_с, .-getlogin_с
	.globl	getlogin_сb
	.type	getlogin_сb, @function
getlogin_сb:
.LVL194:
.LFB25:
	.loc 1 279 1 is_stmt 1 view -0
	.cfi_startproc
	.loc 1 280 5 view .LVU338
	.loc 1 279 1 is_stmt 0 view .LVU339
	pushq	%rbp
	.cfi_def_cfa_offset 16
	.cfi_offset 6, -16
	movq	%rdi, %rbp
	pushq	%rbx
	.cfi_def_cfa_offset 24
	.cfi_offset 3, -24
	pushq	%rcx
	.cfi_def_cfa_offset 32
	.loc 1 280 15 view .LVU340
	call	getlogin
.LVL195:
	.loc 1 280 15 view .LVU341
	movq	%rax, %rbx
.LVL196:
	.loc 1 281 5 is_stmt 1 view .LVU342
	.loc 1 281 8 is_stmt 0 view .LVU343
	testq	%rax, %rax
	jne	.L59
	.loc 1 283 9 is_stmt 1 view .LVU344
	xorl	%eax, %eax
.LVL197:
	.loc 1 283 9 is_stmt 0 view .LVU345
	call	*%rbp
.LVL198:
	.loc 1 285 5 is_stmt 1 view .LVU346
.L59:
	.loc 1 286 1 is_stmt 0 view .LVU347
	movq	%rbx, %rax
	popq	%rdx
	.cfi_def_cfa_offset 24
	popq	%rbx
	.cfi_def_cfa_offset 16
.LVL199:
	.loc 1 286 1 view .LVU348
	popq	%rbp
	.cfi_def_cfa_offset 8
.LVL200:
	.loc 1 286 1 view .LVU349
	ret
	.cfi_endproc
.LFE25:
	.size	getlogin_сb, .-getlogin_сb
	.section	.rodata.str1.1
.LC12:
	.string	"from getlogin_r_\321\201 errno = %d\n"
	.text
	.globl	getlogin_r_с
	.type	getlogin_r_с, @function
getlogin_r_с:
.LVL201:
.LFB26:
	.loc 1 289 1 is_stmt 1 view -0
	.cfi_startproc
	.loc 1 290 5 view .LVU351
	.loc 1 289 1 is_stmt 0 view .LVU352
	pushq	%rbx
	.cfi_def_cfa_offset 16
	.cfi_offset 3, -16
	subq	$16, %rsp
	.cfi_def_cfa_offset 32
	.loc 1 289 1 view .LVU353
	movq	%rdx, 8(%rsp)
	movl	%ecx, 4(%rsp)
	.loc 1 290 13 view .LVU354
	call	getlogin_r
.LVL202:
	.loc 1 291 5 is_stmt 1 view .LVU355
	.loc 1 291 8 is_stmt 0 view .LVU356
	movl	4(%rsp), %ecx
	movq	8(%rsp), %rdx
	testl	%eax, %eax
	je	.L63
	.loc 1 293 9 is_stmt 1 view .LVU357
	movq	stderr(%rip), %rdi
	movl	$.LC0, %esi
	xorl	%eax, %eax
.LVL203:
	.loc 1 293 9 is_stmt 0 view .LVU358
	call	fprintf
.LVL204:
	.loc 1 294 9 is_stmt 1 view .LVU359
	.loc 1 294 60 is_stmt 0 view .LVU360
	call	__errno_location
.LVL205:
	.loc 1 294 9 view .LVU361
	movq	stderr(%rip), %rdi
	movl	$.LC12, %esi
	movl	(%rax), %edx
	.loc 1 294 60 view .LVU362
	movq	%rax, %rbx
	.loc 1 294 9 view .LVU363
	xorl	%eax, %eax
	call	fprintf
.LVL206:
	.loc 1 295 9 is_stmt 1 view .LVU364
	movl	$.LC2, %edi
	call	perror
.LVL207:
	.loc 1 296 9 view .LVU365
	movl	(%rbx), %edi
	call	exit
.LVL208:
.L63:
	.loc 1 298 5 view .LVU366
	.loc 1 299 1 is_stmt 0 view .LVU367
	addq	$16, %rsp
	.cfi_def_cfa_offset 16
	xorl	%eax, %eax
.LVL209:
	.loc 1 299 1 view .LVU368
	popq	%rbx
	.cfi_def_cfa_offset 8
	ret
	.cfi_endproc
.LFE26:
	.size	getlogin_r_с, .-getlogin_r_с
	.globl	getlogin_r_сb
	.type	getlogin_r_сb, @function
getlogin_r_сb:
.LVL210:
.LFB27:
	.loc 1 302 1 is_stmt 1 view -0
	.cfi_startproc
	.loc 1 303 5 view .LVU370
	.loc 1 302 1 is_stmt 0 view .LVU371
	pushq	%rbp
	.cfi_def_cfa_offset 16
	.cfi_offset 6, -16
	movq	%rdi, %rbp
	movq	%rsi, %rdi
.LVL211:
	.loc 1 302 1 view .LVU372
	movq	%rdx, %rsi
.LVL212:
	.loc 1 302 1 view .LVU373
	pushq	%rbx
	.cfi_def_cfa_offset 24
	.cfi_offset 3, -24
	pushq	%rcx
	.cfi_def_cfa_offset 32
	.loc 1 303 13 view .LVU374
	call	getlogin_r
.LVL213:
	.loc 1 303 13 view .LVU375
	movl	%eax, %ebx
.LVL214:
	.loc 1 304 5 is_stmt 1 view .LVU376
	.loc 1 304 8 is_stmt 0 view .LVU377
	testl	%eax, %eax
	je	.L65
	.loc 1 306 9 is_stmt 1 view .LVU378
	call	*%rbp
.LVL215:
	.loc 1 308 5 view .LVU379
.L65:
	.loc 1 309 1 is_stmt 0 view .LVU380
	movl	%ebx, %eax
	popq	%rdx
	.cfi_def_cfa_offset 24
	popq	%rbx
	.cfi_def_cfa_offset 16
.LVL216:
	.loc 1 309 1 view .LVU381
	popq	%rbp
	.cfi_def_cfa_offset 8
.LVL217:
	.loc 1 309 1 view .LVU382
	ret
	.cfi_endproc
.LFE27:
	.size	getlogin_r_сb, .-getlogin_r_сb
	.section	.rodata.str1.1
.LC13:
	.string	"from getsid_\321\201 pid = %u, errno = %d\n"
	.text
	.globl	getsid_с
	.type	getsid_с, @function
getsid_с:
.LVL218:
.LFB28:
	.loc 1 317 1 is_stmt 1 view -0
	.cfi_startproc
	.loc 1 318 5 view .LVU384
	.loc 1 317 1 is_stmt 0 view .LVU385
	pushq	%r12
	.cfi_def_cfa_offset 16
	.cfi_offset 12, -16
	movl	%edx, %r12d
	pushq	%rbp
	.cfi_def_cfa_offset 24
	.cfi_offset 6, -24
	movl	%edi, %ebp
	pushq	%rbx
	.cfi_def_cfa_offset 32
	.cfi_offset 3, -32
	.loc 1 317 1 view .LVU386
	movq	%rsi, %rbx
	.loc 1 318 13 view .LVU387
	call	getsid
.LVL219:
	.loc 1 319 5 is_stmt 1 view .LVU388
	.loc 1 319 8 is_stmt 0 view .LVU389
	cmpl	$-1, %eax
	jne	.L71
	.loc 1 321 9 is_stmt 1 view .LVU390
	movq	stderr(%rip), %rdi
	movq	%rbx, %rdx
	movl	%r12d, %ecx
	xorl	%eax, %eax
.LVL220:
	.loc 1 321 9 is_stmt 0 view .LVU391
	movl	$.LC0, %esi
	call	fprintf
.LVL221:
	.loc 1 322 9 is_stmt 1 view .LVU392
	.loc 1 322 71 is_stmt 0 view .LVU393
	call	__errno_location
.LVL222:
	.loc 1 322 9 view .LVU394
	movq	stderr(%rip), %rdi
	movl	%ebp, %edx
	movl	$.LC13, %esi
	movl	(%rax), %ecx
	.loc 1 322 71 view .LVU395
	movq	%rax, %rbx
.LVL223:
	.loc 1 322 9 view .LVU396
	xorl	%eax, %eax
	call	fprintf
.LVL224:
	.loc 1 323 9 is_stmt 1 view .LVU397
	movl	$.LC2, %edi
	call	perror
.LVL225:
	.loc 1 324 9 view .LVU398
	movl	(%rbx), %edi
	call	exit
.LVL226:
.L71:
	.loc 1 327 1 is_stmt 0 view .LVU399
	popq	%rbx
	.cfi_def_cfa_offset 24
.LVL227:
	.loc 1 327 1 view .LVU400
	popq	%rbp
	.cfi_def_cfa_offset 16
.LVL228:
	.loc 1 327 1 view .LVU401
	popq	%r12
	.cfi_def_cfa_offset 8
.LVL229:
	.loc 1 327 1 view .LVU402
	ret
	.cfi_endproc
.LFE28:
	.size	getsid_с, .-getsid_с
	.globl	getsid_сb
	.type	getsid_сb, @function
getsid_сb:
.LVL230:
.LFB29:
	.loc 1 330 1 is_stmt 1 view -0
	.cfi_startproc
	.loc 1 331 5 view .LVU404
	.loc 1 330 1 is_stmt 0 view .LVU405
	pushq	%r12
	.cfi_def_cfa_offset 16
	.cfi_offset 12, -16
	movq	%rdi, %r12
	.loc 1 331 13 view .LVU406
	movl	%esi, %edi
.LVL231:
	.loc 1 330 1 view .LVU407
	pushq	%rbp
	.cfi_def_cfa_offset 24
	.cfi_offset 6, -24
	movl	%esi, %ebp
	pushq	%rbx
	.cfi_def_cfa_offset 32
	.cfi_offset 3, -32
	.loc 1 331 13 view .LVU408
	call	getsid
.LVL232:
	.loc 1 331 13 view .LVU409
	movl	%eax, %ebx
.LVL233:
	.loc 1 332 5 is_stmt 1 view .LVU410
	.loc 1 332 8 is_stmt 0 view .LVU411
	incl	%eax
.LVL234:
	.loc 1 332 8 view .LVU412
	jne	.L74
	.loc 1 334 9 is_stmt 1 view .LVU413
	movl	%ebp, %edi
	call	*%r12
.LVL235:
	.loc 1 336 5 view .LVU414
.L74:
	.loc 1 337 1 is_stmt 0 view .LVU415
	movl	%ebx, %eax
	popq	%rbx
	.cfi_def_cfa_offset 24
.LVL236:
	.loc 1 337 1 view .LVU416
	popq	%rbp
	.cfi_def_cfa_offset 16
.LVL237:
	.loc 1 337 1 view .LVU417
	popq	%r12
	.cfi_def_cfa_offset 8
.LVL238:
	.loc 1 337 1 view .LVU418
	ret
	.cfi_endproc
.LFE29:
	.size	getsid_сb, .-getsid_сb
	.section	.rodata.str1.1
.LC14:
	.string	"from lockf_\321\201 fildes = %d,function = %ld,size = %ld, errno = %d\n"
	.text
	.globl	lockf_с
	.type	lockf_с, @function
lockf_с:
.LVL239:
.LFB30:
	.loc 1 345 1 is_stmt 1 view -0
	.cfi_startproc
	.loc 1 346 5 view .LVU420
	.loc 1 345 1 is_stmt 0 view .LVU421
	pushq	%r14
	.cfi_def_cfa_offset 16
	.cfi_offset 14, -16
	movl	%r8d, %r14d
	pushq	%r13
	.cfi_def_cfa_offset 24
	.cfi_offset 13, -24
	movq	%rdx, %r13
	pushq	%r12
	.cfi_def_cfa_offset 32
	.cfi_offset 12, -32
	movl	%esi, %r12d
	pushq	%rbp
	.cfi_def_cfa_offset 40
	.cfi_offset 6, -40
	movl	%edi, %ebp
	pushq	%rbx
	.cfi_def_cfa_offset 48
	.cfi_offset 3, -48
	.loc 1 345 1 view .LVU422
	movq	%rcx, %rbx
	.loc 1 346 15 view .LVU423
	call	lockf
.LVL240:
	.loc 1 347 5 is_stmt 1 view .LVU424
	.loc 1 347 8 is_stmt 0 view .LVU425
	cmpl	$-1, %eax
	jne	.L77
	.loc 1 349 9 is_stmt 1 view .LVU426
	movq	stderr(%rip), %rdi
	movq	%rbx, %rdx
	movl	%r14d, %ecx
	xorl	%eax, %eax
.LVL241:
	.loc 1 349 9 is_stmt 0 view .LVU427
	movl	$.LC0, %esi
	call	fprintf
.LVL242:
	.loc 1 350 9 is_stmt 1 view .LVU428
	.loc 1 350 118 is_stmt 0 view .LVU429
	call	__errno_location
.LVL243:
	.loc 1 350 9 view .LVU430
	movq	%r13, %r8
	movl	%r12d, %ecx
	movl	%ebp, %edx
	movl	(%rax), %r9d
	movq	stderr(%rip), %rdi
	.loc 1 350 118 view .LVU431
	movq	%rax, %rbx
.LVL244:
	.loc 1 350 9 view .LVU432
	movl	$.LC14, %esi
	xorl	%eax, %eax
	call	fprintf
.LVL245:
	.loc 1 351 9 is_stmt 1 view .LVU433
	movl	$.LC2, %edi
	call	perror
.LVL246:
	.loc 1 352 9 view .LVU434
	movl	(%rbx), %edi
	call	exit
.LVL247:
.L77:
	.loc 1 352 9 is_stmt 0 view .LVU435
	movslq	%eax, %rdx
	.loc 1 355 1 view .LVU436
	popq	%rbx
	.cfi_def_cfa_offset 40
.LVL248:
	.loc 1 355 1 view .LVU437
	popq	%rbp
	.cfi_def_cfa_offset 32
.LVL249:
	.loc 1 355 1 view .LVU438
	movq	%rdx, %rax
	.loc 1 355 1 view .LVU439
	popq	%r12
	.cfi_def_cfa_offset 24
.LVL250:
	.loc 1 355 1 view .LVU440
	popq	%r13
	.cfi_def_cfa_offset 16
.LVL251:
	.loc 1 355 1 view .LVU441
	popq	%r14
	.cfi_def_cfa_offset 8
.LVL252:
	.loc 1 355 1 view .LVU442
	ret
	.cfi_endproc
.LFE30:
	.size	lockf_с, .-lockf_с
	.globl	lockf_сb
	.type	lockf_сb, @function
lockf_сb:
.LVL253:
.LFB31:
	.loc 1 358 1 is_stmt 1 view -0
	.cfi_startproc
	.loc 1 359 5 view .LVU444
	.loc 1 358 1 is_stmt 0 view .LVU445
	pushq	%r14
	.cfi_def_cfa_offset 16
	.cfi_offset 14, -16
	pushq	%r13
	.cfi_def_cfa_offset 24
	.cfi_offset 13, -24
	movq	%rdi, %r13
	pushq	%r12
	.cfi_def_cfa_offset 32
	.cfi_offset 12, -32
	movq	%rcx, %r12
	pushq	%rbp
	.cfi_def_cfa_offset 40
	.cfi_offset 6, -40
	movl	%edx, %ebp
	.loc 1 359 15 view .LVU446
	movq	%rcx, %rdx
.LVL254:
	.loc 1 358 1 view .LVU447
	pushq	%rbx
	.cfi_def_cfa_offset 48
	.cfi_offset 3, -48
	.loc 1 358 1 view .LVU448
	movl	%esi, %ebx
	.loc 1 359 15 view .LVU449
	movl	%ebp, %esi
.LVL255:
	.loc 1 359 15 view .LVU450
	movl	%ebx, %edi
.LVL256:
	.loc 1 359 15 view .LVU451
	call	lockf
.LVL257:
	.loc 1 359 11 view .LVU452
	movslq	%eax, %r14
.LVL258:
	.loc 1 360 5 is_stmt 1 view .LVU453
	.loc 1 360 8 is_stmt 0 view .LVU454
	incl	%eax
	jne	.L80
	.loc 1 362 9 is_stmt 1 view .LVU455
	movq	%r12, %rdx
	movl	%ebp, %esi
	movl	%ebx, %edi
	call	*%r13
.LVL259:
	.loc 1 364 5 view .LVU456
.L80:
	.loc 1 365 1 is_stmt 0 view .LVU457
	popq	%rbx
	.cfi_def_cfa_offset 40
.LVL260:
	.loc 1 365 1 view .LVU458
	movq	%r14, %rax
	popq	%rbp
	.cfi_def_cfa_offset 32
.LVL261:
	.loc 1 365 1 view .LVU459
	popq	%r12
	.cfi_def_cfa_offset 24
.LVL262:
	.loc 1 365 1 view .LVU460
	popq	%r13
	.cfi_def_cfa_offset 16
.LVL263:
	.loc 1 365 1 view .LVU461
	popq	%r14
	.cfi_def_cfa_offset 8
.LVL264:
	.loc 1 365 1 view .LVU462
	ret
	.cfi_endproc
.LFE31:
	.size	lockf_сb, .-lockf_сb
	.section	.rodata.str1.1
.LC15:
	.string	"from lockf_\321\201 fildes = %d,function = %d,size = %d, errno = %d\n"
	.text
	.globl	lseek_с
	.type	lseek_с, @function
lseek_с:
.LVL265:
.LFB32:
	.loc 1 368 1 is_stmt 1 view -0
	.cfi_startproc
	.loc 1 369 5 view .LVU464
	.loc 1 368 1 is_stmt 0 view .LVU465
	pushq	%r14
	.cfi_def_cfa_offset 16
	.cfi_offset 14, -16
	movl	%r8d, %r14d
	pushq	%r13
	.cfi_def_cfa_offset 24
	.cfi_offset 13, -24
	movl	%edx, %r13d
	pushq	%r12
	.cfi_def_cfa_offset 32
	.cfi_offset 12, -32
	movq	%rsi, %r12
	pushq	%rbp
	.cfi_def_cfa_offset 40
	.cfi_offset 6, -40
	movl	%edi, %ebp
	pushq	%rbx
	.cfi_def_cfa_offset 48
	.cfi_offset 3, -48
	.loc 1 368 1 view .LVU466
	movq	%rcx, %rbx
	.loc 1 369 13 view .LVU467
	call	lseek
.LVL266:
	.loc 1 370 5 is_stmt 1 view .LVU468
	.loc 1 370 8 is_stmt 0 view .LVU469
	cmpl	$-1, %eax
	jne	.L83
	.loc 1 372 9 is_stmt 1 view .LVU470
	movq	stderr(%rip), %rdi
	movq	%rbx, %rdx
	movl	%r14d, %ecx
	xorl	%eax, %eax
.LVL267:
	.loc 1 372 9 is_stmt 0 view .LVU471
	movl	$.LC0, %esi
	call	fprintf
.LVL268:
	.loc 1 373 9 is_stmt 1 view .LVU472
	.loc 1 373 115 is_stmt 0 view .LVU473
	call	__errno_location
.LVL269:
	.loc 1 373 9 view .LVU474
	movl	%r13d, %r8d
	movq	%r12, %rcx
	movl	%ebp, %edx
	movl	(%rax), %r9d
	movq	stderr(%rip), %rdi
	.loc 1 373 115 view .LVU475
	movq	%rax, %rbx
.LVL270:
	.loc 1 373 9 view .LVU476
	movl	$.LC15, %esi
	xorl	%eax, %eax
	call	fprintf
.LVL271:
	.loc 1 374 9 is_stmt 1 view .LVU477
	movl	$.LC2, %edi
	call	perror
.LVL272:
	.loc 1 375 9 view .LVU478
	movl	(%rbx), %edi
	call	exit
.LVL273:
.L83:
	.loc 1 378 1 is_stmt 0 view .LVU479
	popq	%rbx
	.cfi_def_cfa_offset 40
.LVL274:
	.loc 1 378 1 view .LVU480
	popq	%rbp
	.cfi_def_cfa_offset 32
.LVL275:
	.loc 1 378 1 view .LVU481
	popq	%r12
	.cfi_def_cfa_offset 24
.LVL276:
	.loc 1 378 1 view .LVU482
	popq	%r13
	.cfi_def_cfa_offset 16
.LVL277:
	.loc 1 378 1 view .LVU483
	popq	%r14
	.cfi_def_cfa_offset 8
.LVL278:
	.loc 1 378 1 view .LVU484
	ret
	.cfi_endproc
.LFE32:
	.size	lseek_с, .-lseek_с
	.globl	lseek_сb
	.type	lseek_сb, @function
lseek_сb:
.LVL279:
.LFB33:
	.loc 1 381 1 is_stmt 1 view -0
	.cfi_startproc
	.loc 1 382 5 view .LVU486
	.loc 1 381 1 is_stmt 0 view .LVU487
	pushq	%r14
	.cfi_def_cfa_offset 16
	.cfi_offset 14, -16
	pushq	%r13
	.cfi_def_cfa_offset 24
	.cfi_offset 13, -24
	movq	%rdi, %r13
	pushq	%r12
	.cfi_def_cfa_offset 32
	.cfi_offset 12, -32
	movl	%ecx, %r12d
	pushq	%rbp
	.cfi_def_cfa_offset 40
	.cfi_offset 6, -40
	movq	%rdx, %rbp
	.loc 1 382 13 view .LVU488
	movl	%ecx, %edx
.LVL280:
	.loc 1 381 1 view .LVU489
	pushq	%rbx
	.cfi_def_cfa_offset 48
	.cfi_offset 3, -48
	.loc 1 381 1 view .LVU490
	movl	%esi, %ebx
	.loc 1 382 13 view .LVU491
	movq	%rbp, %rsi
.LVL281:
	.loc 1 382 13 view .LVU492
	movl	%ebx, %edi
.LVL282:
	.loc 1 382 13 view .LVU493
	call	lseek
.LVL283:
	.loc 1 382 9 view .LVU494
	movl	%eax, %r14d
.LVL284:
	.loc 1 383 5 is_stmt 1 view .LVU495
	.loc 1 383 8 is_stmt 0 view .LVU496
	incl	%eax
.LVL285:
	.loc 1 383 8 view .LVU497
	jne	.L86
	.loc 1 385 9 is_stmt 1 view .LVU498
	movl	%r12d, %edx
	movq	%rbp, %rsi
	movl	%ebx, %edi
	call	*%r13
.LVL286:
	.loc 1 387 5 view .LVU499
.L86:
	.loc 1 388 1 is_stmt 0 view .LVU500
	popq	%rbx
	.cfi_def_cfa_offset 40
.LVL287:
	.loc 1 388 1 view .LVU501
	movl	%r14d, %eax
	popq	%rbp
	.cfi_def_cfa_offset 32
.LVL288:
	.loc 1 388 1 view .LVU502
	popq	%r12
	.cfi_def_cfa_offset 24
.LVL289:
	.loc 1 388 1 view .LVU503
	popq	%r13
	.cfi_def_cfa_offset 16
.LVL290:
	.loc 1 388 1 view .LVU504
	popq	%r14
	.cfi_def_cfa_offset 8
.LVL291:
	.loc 1 388 1 view .LVU505
	ret
	.cfi_endproc
.LFE33:
	.size	lseek_сb, .-lseek_сb
	.section	.rodata.str1.1
.LC16:
	.string	"from read_\321\201 nbyte = %ld, errno = %d\n"
	.text
	.globl	read_с
	.type	read_с, @function
read_с:
.LVL292:
.LFB34:
	.loc 1 397 1 is_stmt 1 view -0
	.cfi_startproc
	.loc 1 398 5 view .LVU507
	.loc 1 397 1 is_stmt 0 view .LVU508
	pushq	%r12
	.cfi_def_cfa_offset 16
	.cfi_offset 12, -16
	movl	%r8d, %r12d
	pushq	%rbp
	.cfi_def_cfa_offset 24
	.cfi_offset 6, -24
	movq	%rdx, %rbp
	pushq	%rbx
	.cfi_def_cfa_offset 32
	.cfi_offset 3, -32
	.loc 1 397 1 view .LVU509
	movq	%rcx, %rbx
	.loc 1 398 17 view .LVU510
	call	read
.LVL293:
	.loc 1 399 5 is_stmt 1 view .LVU511
	.loc 1 399 8 is_stmt 0 view .LVU512
	cmpq	$-1, %rax
	jne	.L89
	.loc 1 401 9 is_stmt 1 view .LVU513
	movq	stderr(%rip), %rdi
	movq	%rbx, %rdx
	movl	%r12d, %ecx
	xorl	%eax, %eax
.LVL294:
	.loc 1 401 9 is_stmt 0 view .LVU514
	movl	$.LC0, %esi
	call	fprintf
.LVL295:
	.loc 1 402 9 is_stmt 1 view .LVU515
	.loc 1 402 74 is_stmt 0 view .LVU516
	call	__errno_location
.LVL296:
	.loc 1 402 9 view .LVU517
	movq	stderr(%rip), %rdi
	movq	%rbp, %rdx
	movl	$.LC16, %esi
	movl	(%rax), %ecx
	.loc 1 402 74 view .LVU518
	movq	%rax, %rbx
.LVL297:
	.loc 1 402 9 view .LVU519
	xorl	%eax, %eax
	call	fprintf
.LVL298:
	.loc 1 403 9 is_stmt 1 view .LVU520
	movl	$.LC2, %edi
	call	perror
.LVL299:
	.loc 1 404 9 view .LVU521
	movl	(%rbx), %edi
	call	exit
.LVL300:
.L89:
	.loc 1 407 1 is_stmt 0 view .LVU522
	popq	%rbx
	.cfi_def_cfa_offset 24
.LVL301:
	.loc 1 407 1 view .LVU523
	popq	%rbp
	.cfi_def_cfa_offset 16
.LVL302:
	.loc 1 407 1 view .LVU524
	popq	%r12
	.cfi_def_cfa_offset 8
.LVL303:
	.loc 1 407 1 view .LVU525
	ret
	.cfi_endproc
.LFE34:
	.size	read_с, .-read_с
	.globl	read_сb
	.type	read_сb, @function
read_сb:
.LVL304:
.LFB35:
	.loc 1 410 1 is_stmt 1 view -0
	.cfi_startproc
	.loc 1 411 5 view .LVU527
	.loc 1 410 1 is_stmt 0 view .LVU528
	pushq	%r13
	.cfi_def_cfa_offset 16
	.cfi_offset 13, -16
	movq	%rdi, %r13
	pushq	%r12
	.cfi_def_cfa_offset 24
	.cfi_offset 12, -24
	movq	%rcx, %r12
	pushq	%rbp
	.cfi_def_cfa_offset 32
	.cfi_offset 6, -32
	movl	%esi, %ebp
	movq	%rdx, %rsi
.LVL305:
	.loc 1 411 17 view .LVU529
	movq	%rcx, %rdx
.LVL306:
	.loc 1 410 1 view .LVU530
	pushq	%rbx
	.cfi_def_cfa_offset 40
	.cfi_offset 3, -40
	.loc 1 411 17 view .LVU531
	movl	%ebp, %edi
.LVL307:
	.loc 1 410 1 view .LVU532
	pushq	%r8
	.cfi_def_cfa_offset 48
	.loc 1 411 17 view .LVU533
	call	read
.LVL308:
	.loc 1 411 17 view .LVU534
	movq	%rax, %rbx
.LVL309:
	.loc 1 412 5 is_stmt 1 view .LVU535
	.loc 1 412 8 is_stmt 0 view .LVU536
	incq	%rax
.LVL310:
	.loc 1 412 8 view .LVU537
	jne	.L93
	.loc 1 414 9 is_stmt 1 view .LVU538
	movq	%r12, %rsi
	movl	%ebp, %edi
	call	*%r13
.LVL311:
.L93:
	.loc 1 416 5 view .LVU539
	.loc 1 417 1 is_stmt 0 view .LVU540
	popq	%rdx
	.cfi_def_cfa_offset 40
	.loc 1 416 12 view .LVU541
	movl	%ebx, %eax
	.loc 1 417 1 view .LVU542
	popq	%rbx
	.cfi_def_cfa_offset 32
	popq	%rbp
	.cfi_def_cfa_offset 24
.LVL312:
	.loc 1 417 1 view .LVU543
	popq	%r12
	.cfi_def_cfa_offset 16
.LVL313:
	.loc 1 417 1 view .LVU544
	popq	%r13
	.cfi_def_cfa_offset 8
.LVL314:
	.loc 1 417 1 view .LVU545
	ret
	.cfi_endproc
.LFE35:
	.size	read_сb, .-read_сb
.Letext0:
	.file 2 "/usr/lib/gcc/x86_64-redhat-linux/12/include/stddef.h"
	.file 3 "/usr/include/bits/types.h"
	.file 4 "/usr/include/bits/types/struct_FILE.h"
	.file 5 "/usr/include/bits/types/FILE.h"
	.file 6 "/usr/include/stdio.h"
	.file 7 "/usr/include/sys/types.h"
	.file 8 "/usr/include/unistd.h"
	.file 9 "/usr/include/stdlib.h"
	.file 10 "/usr/include/errno.h"
	.section	.note.GNU-stack,"",@progbits
